	.file	"secall.c"
	.option nopic
	.attribute arch, "rv64i2p0_m2p0_a2p0_f2p0_d2p0"
	.attribute unaligned_access, 0
	.attribute stack_align, 16
	.text
.Ltext0:
	.cfi_sections	.debug_frame
	.file 0 "/home/lighthouse/xzr/X2W-OS" "sbi/secall.c"
	.align	2
	.globl	secall_init
	.type	secall_init, @function
secall_init:
.LFB11:
	.file 1 "sbi/secall.c"
	.loc 1 16 23
	.cfi_startproc
	addi	sp,sp,-16
	.cfi_def_cfa_offset 16
	sd	ra,8(sp)
	.cfi_offset 1, -8
	.loc 1 17 5
	lla	a3,sup_ecall_handler
	li	a2,0
	li	a1,0
	li	a0,9
	call	regitser_strap_handler
	.loc 1 18 1
	nop
	ld	ra,8(sp)
	.cfi_restore 1
	addi	sp,sp,16
	.cfi_def_cfa_offset 0
	jr	ra
	.cfi_endproc
.LFE11:
	.size	secall_init, .-secall_init
	.section	.rodata
	.align	3
.LC0:
	.string	"%c"
	.align	3
.LC1:
	.string	"%s"
	.align	3
.LC2:
	.string	"Ecall Error: Non-supported ecall ID: %#X!\n"
	.align	3
.LC3:
	.string	"Add Support for Ecall with ID: %#X to remove haning!\n"
	.align	3
.LC4:
	.string	"Hanging HART Here\n"
	.text
	.align	2
	.globl	sup_ecall_handler
	.type	sup_ecall_handler, @function
sup_ecall_handler:
.LFB12:
	.loc 1 20 49
	.cfi_startproc
	addi	sp,sp,-80
	.cfi_def_cfa_offset 80
	sd	ra,72(sp)
	.cfi_offset 1, -8
	sd	a0,8(sp)
	.loc 1 22 12
	ld	a5,8(sp)
	ld	a5,80(a5)
	sd	a5,48(sp)
	.loc 1 23 12
	ld	a5,8(sp)
	ld	a5,88(a5)
	sd	a5,40(sp)
	.loc 1 24 12
	ld	a5,8(sp)
	ld	a5,96(a5)
	sd	a5,32(sp)
	.loc 1 25 12
	ld	a5,8(sp)
	ld	a5,136(a5)
	sd	a5,24(sp)
	.loc 1 27 13
	li	a5,-1
	sd	a5,56(sp)
	.loc 1 28 5
	ld	a4,24(sp)
	li	a5,3
	beq	a4,a5,.L3
	ld	a4,24(sp)
	li	a5,3
	bgtu	a4,a5,.L4
	ld	a4,24(sp)
	li	a5,2
	beq	a4,a5,.L5
	ld	a4,24(sp)
	li	a5,2
	bgtu	a4,a5,.L4
	ld	a5,24(sp)
	beq	a5,zero,.L6
	ld	a4,24(sp)
	li	a5,1
	beq	a4,a5,.L7
	j	.L4
.L6:
	.loc 1 31 13
	ld	a5,8(sp)
	ld	a5,80(a5)
	mv	a0,a5
	call	clint_timer_event_start
	.loc 1 32 17
	sd	zero,56(sp)
	.loc 1 33 13
	j	.L8
.L7:
	.loc 1 35 27
	ld	a5,48(sp)
	andi	a5,a5,0xff
	.loc 1 35 13
	sext.w	a5,a5
	mv	a1,a5
	lla	a0,.LC0
	call	bprintf
	.loc 1 36 17
	sd	zero,56(sp)
	.loc 1 37 13
	j	.L8
.L5:
	.loc 1 39 13
	ld	a5,48(sp)
	mv	a1,a5
	lla	a0,.LC1
	call	bprintf
	.loc 1 40 17
	sd	zero,56(sp)
	.loc 1 41 13
	j	.L8
.L3:
	.loc 1 44 38
	call	uart_get
	mv	a5,a0
	mv	a4,a5
	.loc 1 44 36
	ld	a5,8(sp)
	sd	a4,80(a5)
	.loc 1 45 17
	sd	zero,56(sp)
	.loc 1 46 13
	j	.L8
.L4:
	.loc 1 48 13
	ld	a1,24(sp)
	lla	a0,.LC2
	call	bprintf
	.loc 1 49 13
	ld	a1,24(sp)
	lla	a0,.LC3
	call	bprintf
	.loc 1 50 13
	lla	a0,.LC4
	call	bprintf
.L9:
	.loc 1 51 18 discriminator 1
	nop
	j	.L9
.L8:
	.loc 1 55 8
	ld	a5,56(sp)
	bne	a5,zero,.L10
	.loc 1 56 16
	ld	a5,8(sp)
	ld	a5,0(a5)
	.loc 1 56 23
	addi	a4,a5,4
	ld	a5,8(sp)
	sd	a4,0(a5)
.L10:
	.loc 1 58 12
	ld	a5,56(sp)
	.loc 1 59 1
	mv	a0,a5
	ld	ra,72(sp)
	.cfi_restore 1
	addi	sp,sp,80
	.cfi_def_cfa_offset 0
	jr	ra
	.cfi_endproc
.LFE12:
	.size	sup_ecall_handler, .-sup_ecall_handler
.Letext0:
	.file 2 "include/types.h"
	.file 3 "include/trap/trapframe.h"
	.file 4 "include/sbi/strap.h"
	.file 5 "include/sbi/stimer.h"
	.file 6 "include/sbi/sbi.h"
	.file 7 "include/device/uart.h"
	.file 8 "include/sbi/sstdio.h"