	.file	"kplic.c"
	.option nopic
	.attribute arch, "rv64i2p0_m2p0_a2p0_f2p0_d2p0"
	.attribute unaligned_access, 0
	.attribute stack_align, 16
	.text
.Ltext0:
	.cfi_sections	.debug_frame
	.file 0 "/home/lighthouse/xzr/X2W-OS" "kernel/kplic.c"
	.align	2
	.type	read_32_bits, @function
read_32_bits:
.LFB2:
	.file 1 "include/io.h"
	.loc 1 162 49
	.cfi_startproc
	addi	sp,sp,-32
	.cfi_def_cfa_offset 32
	sd	a0,8(sp)
	.loc 1 162 67
	ld	a5,8(sp)
	.loc 1 162 60
	lw	a5,0(a5)
	sw	a5,28(sp)
	.loc 1 162 93
	.loc 1 162 142
	lw	a5,28(sp)
	.loc 1 162 147
	mv	a0,a5
	addi	sp,sp,32
	.cfi_def_cfa_offset 0
	jr	ra
	.cfi_endproc
.LFE2:
	.size	read_32_bits, .-read_32_bits
	.align	2
	.type	write_32_bits, @function
write_32_bits:
.LFB6:
	.loc 1 167 62
	.cfi_startproc
	addi	sp,sp,-32
	.cfi_def_cfa_offset 32
	sd	a0,8(sp)
	mv	a5,a1
	sw	a5,4(sp)
	.loc 1 167 73
	lw	a5,4(sp)
	sw	a5,28(sp)
	.loc 1 167 86
	.loc 1 167 129
	ld	a5,8(sp)
	.loc 1 167 154
	lw	a4,28(sp)
	sw	a4,0(a5)
	.loc 1 167 161
	nop
	addi	sp,sp,32
	.cfi_def_cfa_offset 0
	jr	ra
	.cfi_endproc
.LFE6:
	.size	write_32_bits, .-write_32_bits
	.align	2
	.type	plic_priority_addr, @function
plic_priority_addr:
.LFB8:
	.file 2 "include/asm/plic.h"
	.loc 2 42 56
	.cfi_startproc
	addi	sp,sp,-16
	.cfi_def_cfa_offset 16
	mv	a5,a0
	sw	a5,12(sp)
	.loc 2 43 42
	lw	a5,12(sp)
	slliw	a5,a5,2
	sext.w	a5,a5
	slli	a4,a5,32
	srli	a4,a4,32
	.loc 2 43 12
	li	a5,201326592
	add	a5,a4,a5
	.loc 2 44 1
	mv	a0,a5
	addi	sp,sp,16
	.cfi_def_cfa_offset 0
	jr	ra
	.cfi_endproc
.LFE8:
	.size	plic_priority_addr, .-plic_priority_addr
	.align	2
	.type	plic_enable_addr, @function
plic_enable_addr:
.LFB10:
	.loc 2 68 65
	.cfi_startproc
	addi	sp,sp,-32
	.cfi_def_cfa_offset 32
	sd	a0,8(sp)
	mv	a5,a1
	sb	a5,7(sp)
	.loc 2 69 49
	lbu	a5,7(sp)
	andi	a4,a5,0xff
	li	a5,1
	bne	a4,a5,.L7
	.loc 2 69 49 is_stmt 0 discriminator 1
	li	a5,8192
	j	.L8
.L7:
	.loc 2 69 49 discriminator 2
	li	a5,8192
	addi	a5,a5,128
.L8:
	.loc 2 69 14 is_stmt 1 discriminator 4
	sd	a5,24(sp)
	.loc 2 70 49 discriminator 4
	ld	a5,8(sp)
	slli	a4,a5,7
	.loc 2 70 12 discriminator 4
	ld	a5,24(sp)
	add	a4,a4,a5
	li	a5,201326592
	add	a5,a4,a5
	.loc 2 71 1 discriminator 4
	mv	a0,a5
	addi	sp,sp,32
	.cfi_def_cfa_offset 0
	jr	ra
	.cfi_endproc
.LFE10:
	.size	plic_enable_addr, .-plic_enable_addr
	.align	2
	.type	plic_threshold_addr, @function
plic_threshold_addr:
.LFB11:
	.loc 2 83 68
	.cfi_startproc
	addi	sp,sp,-32
	.cfi_def_cfa_offset 32
	sd	a0,8(sp)
	mv	a5,a1
	sb	a5,7(sp)
	.loc 2 84 51
	lbu	a5,7(sp)
	andi	a4,a5,0xff
	li	a5,1
	bne	a4,a5,.L11
	.loc 2 84 51 is_stmt 0 discriminator 1
	li	a5,2097152
	j	.L12
.L11:
	.loc 2 84 51 discriminator 2
	li	a5,2101248
.L12:
	.loc 2 84 14 is_stmt 1 discriminator 4
	sd	a5,24(sp)
	.loc 2 85 49 discriminator 4
	ld	a5,8(sp)
	slli	a4,a5,12
	.loc 2 85 12 discriminator 4
	ld	a5,24(sp)
	add	a4,a4,a5
	li	a5,201326592
	add	a5,a4,a5
	.loc 2 86 1 discriminator 4
	mv	a0,a5
	addi	sp,sp,32
	.cfi_def_cfa_offset 0
	jr	ra
	.cfi_endproc
.LFE11:
	.size	plic_threshold_addr, .-plic_threshold_addr
	.align	2
	.type	plic_claim_addr, @function
plic_claim_addr:
.LFB12:
	.loc 2 98 64
	.cfi_startproc
	addi	sp,sp,-32
	.cfi_def_cfa_offset 32
	sd	ra,24(sp)
	.cfi_offset 1, -8
	sd	a0,8(sp)
	mv	a5,a1
	sb	a5,7(sp)
	.loc 2 99 12
	lbu	a5,7(sp)
	mv	a1,a5
	ld	a0,8(sp)
	call	plic_threshold_addr
	mv	a5,a0
	.loc 2 99 45
	addi	a5,a5,4
	.loc 2 100 1
	mv	a0,a5
	ld	ra,24(sp)
	.cfi_restore 1
	addi	sp,sp,32
	.cfi_def_cfa_offset 0
	jr	ra
	.cfi_endproc
.LFE12:
	.size	plic_claim_addr, .-plic_claim_addr
	.align	2
	.globl	kplic_set_priority
	.type	kplic_set_priority, @function
kplic_set_priority:
.LFB16:
	.file 3 "kernel/kplic.c"
	.loc 3 24 59
	.cfi_startproc
	addi	sp,sp,-48
	.cfi_def_cfa_offset 48
	sd	ra,40(sp)
	.cfi_offset 1, -8
	mv	a5,a0
	mv	a4,a1
	sw	a5,12(sp)
	mv	a5,a4
	sw	a5,8(sp)
	.loc 3 26 23
	lw	a5,12(sp)
	mv	a0,a5
	call	plic_priority_addr
	sd	a0,24(sp)
	.loc 3 30 5
	lw	a5,8(sp)
	mv	a1,a5
	ld	a0,24(sp)
	call	write_32_bits
	.loc 3 31 1
	nop
	ld	ra,40(sp)
	.cfi_restore 1
	addi	sp,sp,48
	.cfi_def_cfa_offset 0
	jr	ra
	.cfi_endproc
.LFE16:
	.size	kplic_set_priority, .-kplic_set_priority
	.align	2
	.globl	kplic_enable_interrupt
	.type	kplic_enable_interrupt, @function
kplic_enable_interrupt:
.LFB17:
	.loc 3 33 84
	.cfi_startproc
	addi	sp,sp,-48
	.cfi_def_cfa_offset 48
	sd	ra,40(sp)
	.cfi_offset 1, -8
	sd	a0,8(sp)
	mv	a5,a1
	mv	a4,a3
	sw	a5,4(sp)
	mv	a5,a2
	sb	a5,3(sp)
	mv	a5,a4
	sb	a5,2(sp)
	.loc 3 35 39
	lw	a5,4(sp)
	andi	a5,a5,31
	sext.w	a5,a5
	.loc 3 35 29
	li	a4,1
	sllw	a5,a4,a5
	sext.w	a5,a5
	.loc 3 35 14
	sw	a5,28(sp)
	.loc 3 36 26
	ld	a5,8(sp)
	sext.w	a5,a5
	addiw	a5,a5,1
	sext.w	a5,a5
	.loc 3 36 9
	sw	a5,24(sp)
	.loc 3 38 23
	lw	a5,24(sp)
	lbu	a4,2(sp)
	mv	a1,a4
	mv	a0,a5
	call	plic_enable_addr
	mv	a4,a0
	.loc 3 38 70
	lw	a5,4(sp)
	srliw	a5,a5,5
	sext.w	a5,a5
	.loc 3 38 61
	slliw	a5,a5,2
	sext.w	a5,a5
	slli	a5,a5,32
	srli	a5,a5,32
	.loc 3 38 12
	add	a5,a4,a5
	sd	a5,16(sp)
	.loc 3 44 8
	lbu	a5,3(sp)
	andi	a5,a5,0xff
	beq	a5,zero,.L18
	.loc 3 45 33
	ld	a0,16(sp)
	call	read_32_bits
	mv	a5,a0
	sext.w	a5,a5
	.loc 3 45 9
	lw	a4,28(sp)
	or	a5,a4,a5
	sext.w	a5,a5
	mv	a1,a5
	ld	a0,16(sp)
	call	write_32_bits
	.loc 3 48 1
	j	.L20
.L18:
	.loc 3 47 33
	ld	a0,16(sp)
	call	read_32_bits
	mv	a5,a0
	sext.w	a4,a5
	.loc 3 47 58
	lw	a5,28(sp)
	not	a5,a5
	sext.w	a5,a5
	.loc 3 47 9
	and	a5,a4,a5
	sext.w	a5,a5
	mv	a1,a5
	ld	a0,16(sp)
	call	write_32_bits
.L20:
	.loc 3 48 1
	nop
	ld	ra,40(sp)
	.cfi_restore 1
	addi	sp,sp,48
	.cfi_def_cfa_offset 0
	jr	ra
	.cfi_endproc
.LFE17:
	.size	kplic_enable_interrupt, .-kplic_enable_interrupt
	.section	.rodata
	.align	3
.LC0:
	.string	"KPLIC Info:"
	.align	3
.LC1:
	.string	"\tSet priority off INTR_NO %d~%d to 1\n"
	.align	3
.LC2:
	.string	"\tDisable INTR_NO %d~%d of all CPU\n"
	.align	3
.LC3:
	.string	"\tSet Interrupt Priority Threshold Register of all CPU to 0\n"
	.align	3
.LC4:
	.string	"\tSet Software External Interrupt (SEIE) of sie\n"
	.align	3
.LC5:
	.string	"\tEnable UART0 Interrupt (SEIE) of CPU 0\n"
	.text
	.align	2
	.globl	kplic_init
	.type	kplic_init, @function
kplic_init:
.LFB18:
	.loc 3 50 22
	.cfi_startproc
	addi	sp,sp,-48
	.cfi_def_cfa_offset 48
	sd	ra,40(sp)
	.cfi_offset 1, -8
	.loc 3 51 5
	lla	a0,.LC0
	call	kprintf
	.loc 3 52 5
	li	a2,53
	li	a1,1
	lla	a0,.LC1
	call	kprintf
.LBB2:
	.loc 3 54 14
	li	a5,1
	sw	a5,28(sp)
	.loc 3 54 5
	j	.L22
.L23:
	.loc 3 55 9 discriminator 3
	lw	a5,28(sp)
	li	a1,1
	mv	a0,a5
	call	kplic_set_priority
	.loc 3 54 43 discriminator 3
	lw	a5,28(sp)
	addiw	a5,a5,1
	sw	a5,28(sp)
.L22:
	.loc 3 54 31 discriminator 1
	lw	a5,28(sp)
	sext.w	a4,a5
	li	a5,53
	ble	a4,a5,.L23
.LBE2:
	.loc 3 57 5
	li	a2,53
	li	a1,1
	lla	a0,.LC2
	call	kprintf
	.loc 3 58 5
	lla	a0,.LC3
	call	kprintf
.LBB3:
	.loc 3 59 14
	sw	zero,24(sp)
	.loc 3 59 5
	j	.L24
.L27:
	.loc 3 61 53
	lw	a5,24(sp)
	addiw	a5,a5,1
	sext.w	a5,a5
	.loc 3 61 9
	li	a1,1
	mv	a0,a5
	call	plic_threshold_addr
	mv	a5,a0
	li	a1,0
	mv	a0,a5
	call	write_32_bits
.LBB4:
	.loc 3 63 18
	li	a5,1
	sw	a5,20(sp)
	.loc 3 63 9
	j	.L25
.L26:
	.loc 3 64 13 discriminator 3
	lw	a5,24(sp)
	lw	a4,20(sp)
	li	a3,1
	li	a2,0
	mv	a1,a4
	mv	a0,a5
	call	kplic_enable_interrupt
	.loc 3 63 47 discriminator 3
	lw	a5,20(sp)
	addiw	a5,a5,1
	sw	a5,20(sp)
.L25:
	.loc 3 63 35 discriminator 1
	lw	a5,20(sp)
	sext.w	a4,a5
	li	a5,53
	ble	a4,a5,.L26
.LBE4:
	.loc 3 59 44 discriminator 2
	lw	a5,24(sp)
	addiw	a5,a5,1
	sw	a5,24(sp)
.L24:
	.loc 3 59 33 discriminator 1
	lw	a5,24(sp)
	sext.w	a5,a5
	ble	a5,zero,.L27
.LBE3:
	.loc 3 68 5
	lla	a0,.LC4
	call	kprintf
.LBB5:
	.loc 3 69 22
	li	a5,512
	sd	a5,8(sp)
	.loc 3 69 61
	ld	a5,8(sp)
 #APP
# 69 "kernel/kplic.c" 1
	csrs sie, a5
# 0 "" 2
 #NO_APP
.LBE5:
	.loc 3 72 5
	lla	a0,.LC5
	call	kprintf
	.loc 3 73 5
	li	a3,1
	li	a2,1
	li	a1,10
	li	a0,0
	call	kplic_enable_interrupt
	.loc 3 74 1
	nop
	ld	ra,40(sp)
	.cfi_restore 1
	addi	sp,sp,48
	.cfi_def_cfa_offset 0
	jr	ra
	.cfi_endproc
.LFE18:
	.size	kplic_init, .-kplic_init
	.globl	plic_intr_msg
	.section	.rodata
	.align	3
.LC6:
	.string	"Error"
	.align	3
.LC7:
	.string	"VIRTIO_IRQ Interrupt"
	.align	3
.LC8:
	.string	"UART0 Interrupt"
	.align	3
.LC9:
	.string	"RTC Interrupt"
	.align	3
.LC10:
	.string	"PCIe Interrupt"
	.data
	.align	3
	.type	plic_intr_msg, @object
	.size	plic_intr_msg, 424
plic_intr_msg:
	.dword	.LC6
	.dword	.LC7
	.dword	.LC7
	.dword	.LC7
	.dword	.LC7
	.dword	.LC7
	.dword	.LC7
	.dword	.LC7
	.dword	.LC7
	.dword	.LC6
	.dword	.LC8
	.dword	.LC9
	.zero	160
	.dword	.LC10
	.dword	.LC10
	.dword	.LC10
	.dword	.LC10
	.zero	136
	.text
	.align	2
	.globl	kplic_interrupt_handler
	.type	kplic_interrupt_handler, @function
kplic_interrupt_handler:
.LFB19:
	.loc 3 90 55
	.cfi_startproc
	addi	sp,sp,-80
	.cfi_def_cfa_offset 80
	sd	ra,72(sp)
	.cfi_offset 1, -8
	sd	a0,8(sp)
.LBB6:
	.loc 3 92 22
	li	a5,512
	sd	a5,56(sp)
	.loc 3 92 61
	ld	a5,56(sp)
 #APP
# 92 "kernel/kplic.c" 1
	csrc sie, a5
# 0 "" 2
 #NO_APP
.LBE6:
	.loc 3 95 9
	li	a5,1
	sw	a5,52(sp)
	.loc 3 97 29
	lw	a5,52(sp)
	li	a1,1
	mv	a0,a5
	call	plic_claim_addr
	sd	a0,40(sp)
	.loc 3 98 14
	li	a5,-1
	sw	a5,36(sp)
	.loc 3 101 11
	j	.L29
.L31:
	.loc 3 106 12
	lw	a5,36(sp)
	sext.w	a4,a5
	li	a5,10
	bne	a4,a5,.L30
	.loc 3 107 13
	call	uart_interrupt_handler
.L30:
	.loc 3 110 9
	lw	a5,36(sp)
	mv	a1,a5
	ld	a0,40(sp)
	call	write_32_bits
.L29:
	.loc 3 103 18
	ld	a0,40(sp)
	call	read_32_bits
	mv	a5,a0
	sw	a5,36(sp)
	.loc 3 103 48
	lw	a5,36(sp)
	sext.w	a5,a5
	bne	a5,zero,.L31
.LBB7:
	.loc 3 114 22
	li	a5,512
	sd	a5,24(sp)
	.loc 3 114 61
	ld	a5,24(sp)
 #APP
# 114 "kernel/kplic.c" 1
	csrs sie, a5
# 0 "" 2
 #NO_APP
.LBE7:
	.loc 3 115 12
	li	a5,0
	.loc 3 116 1
	mv	a0,a5
	ld	ra,72(sp)
	.cfi_restore 1
	addi	sp,sp,80
	.cfi_def_cfa_offset 0
	jr	ra
	.cfi_endproc
.LFE19:
	.size	kplic_interrupt_handler, .-kplic_interrupt_handler
.Letext0:
	.file 4 "include/types.h"
	.file 5 "include/trap/trapframe.h"
	.file 6 "include/kernel/kstdio.h"