	.file	"mm.c"
	.option nopic
	.attribute arch, "rv64i2p0_m2p0_a2p0_f2p0_d2p0"
	.attribute unaligned_access, 0
	.attribute stack_align, 16
	.text
.Ltext0:
	.cfi_sections	.debug_frame
	.file 0 "/home/lighthouse/xzr/X2W-OS" "kernel/mm.c"
	.align	2
	.type	supervisor_interrupt_disable, @function
supervisor_interrupt_disable:
.LFB49:
	.file 1 "include/kernel/ktrap.h"
	.loc 1 44 54
	.cfi_startproc
	addi	sp,sp,-16
	.cfi_def_cfa_offset 16
.LBB2:
	.loc 1 45 22
	li	a5,2
	sd	a5,8(sp)
	.loc 1 45 60
	ld	a5,8(sp)
 #APP
# 45 "include/kernel/ktrap.h" 1
	csrc sstatus, a5
# 0 "" 2
 #NO_APP
.LBE2:
	.loc 1 46 1
	nop
	addi	sp,sp,16
	.cfi_def_cfa_offset 0
	jr	ra
	.cfi_endproc
.LFE49:
	.size	supervisor_interrupt_disable, .-supervisor_interrupt_disable
	.section	.rodata
	.align	3
.LC0:
	.string	"===================== Error Message =====================%c"
	.align	3
.LC1:
	.string	"filename: %s, at line %d\n"
	.align	3
.LC2:
	.string	"unsatisfied condition: %s\n"
	.align	3
.LC3:
	.string	"assert check failed in function: %s\n"
	.align	3
.LC4:
	.string	"info message: %s\n"
	.text
	.align	2
	.type	kpanic_spin, @function
kpanic_spin:
.LFB58:
	.file 2 "include/kernel/kdebug.h"
	.loc 2 28 119
	.cfi_startproc
	addi	sp,sp,-1136
	.cfi_def_cfa_offset 1136
	sd	ra,1096(sp)
	.cfi_offset 1, -40
	sd	a0,40(sp)
	sd	a2,24(sp)
	sd	a3,16(sp)
	sd	a4,8(sp)
	sd	a5,1112(sp)
	sd	a6,1120(sp)
	sd	a7,1128(sp)
	mv	a5,a1
	sw	a5,36(sp)
	.loc 2 29 5
	call	supervisor_interrupt_disable
	.loc 2 30 5
	li	a1,10
	lla	a0,.LC0
	call	kprintf
	.loc 2 31 5
	lw	a5,36(sp)
	mv	a2,a5
	ld	a1,40(sp)
	lla	a0,.LC1
	call	kprintf
	.loc 2 32 5
	ld	a1,16(sp)
	lla	a0,.LC2
	call	kprintf
	.loc 2 33 5
	ld	a1,24(sp)
	lla	a0,.LC3
	call	kprintf
	.loc 2 34 10
	sd	zero,64(sp)
	addi	a5,sp,72
	li	a4,1016
	mv	a2,a4
	li	a1,0
	mv	a0,a5
	call	memset
	.loc 2 36 5
	addi	a5,sp,1136
	sd	a5,0(sp)
	ld	a5,0(sp)
	addi	a5,a5,-24
	sd	a5,56(sp)
	.loc 2 37 5
	ld	a4,56(sp)
	addi	a5,sp,64
	mv	a2,a4
	ld	a1,8(sp)
	mv	a0,a5
	call	vsprintf
	.loc 2 38 5
	addi	a5,sp,64
	mv	a1,a5
	lla	a0,.LC4
	call	kprintf
.L3:
	.loc 2 39 11 discriminator 1
	nop
	j	.L3
	.cfi_endproc
.LFE58:
	.size	kpanic_spin, .-kpanic_spin
	.section	.rodata
	.align	3
.LC5:
	.string	"Identical Mapping"
	.align	3
	.type	address_markers, @object
	.size	address_markers, 16
address_markers:
	.dword	0
	.dword	.LC5
	.align	3
.LC6:
	.string	"RSW"
	.align	3
.LC7:
	.string	".."
	.align	3
.LC8:
	.string	"D"
	.align	3
.LC9:
	.string	"."
	.align	3
.LC10:
	.string	"A"
	.align	3
.LC11:
	.string	"G"
	.align	3
.LC12:
	.string	"U"
	.align	3
.LC13:
	.string	"X"
	.align	3
.LC14:
	.string	"W"
	.align	3
.LC15:
	.string	"R"
	.align	3
.LC16:
	.string	"V"
	.align	3
	.type	prot_bits, @object
	.size	prot_bits, 288
prot_bits:
	.dword	768
	.dword	768
	.dword	.LC6
	.dword	.LC7
	.dword	128
	.dword	128
	.dword	.LC8
	.dword	.LC9
	.dword	64
	.dword	64
	.dword	.LC10
	.dword	.LC9
	.dword	32
	.dword	32
	.dword	.LC11
	.dword	.LC9
	.dword	16
	.dword	16
	.dword	.LC12
	.dword	.LC9
	.dword	8
	.dword	8
	.dword	.LC13
	.dword	.LC9
	.dword	4
	.dword	4
	.dword	.LC14
	.dword	.LC9
	.dword	2
	.dword	2
	.dword	.LC15
	.dword	.LC9
	.dword	1
	.dword	1
	.dword	.LC16
	.dword	.LC9
	.text
	.align	2
	.type	page_align, @function
page_align:
.LFB59:
	.file 3 "include/kernel/paging.h"
	.loc 3 204 56
	.cfi_startproc
	addi	sp,sp,-16
	.cfi_def_cfa_offset 16
	sd	a0,8(sp)
	mv	a5,a1
	sb	a5,7(sp)
	.loc 3 205 8
	lbu	a5,7(sp)
	andi	a5,a5,0xff
	bne	a5,zero,.L5
	.loc 3 206 22
	ld	a4,8(sp)
	li	a5,-4096
	and	a5,a4,a5
	j	.L6
.L5:
	.loc 3 207 30
	ld	a4,8(sp)
	li	a5,4096
	addi	a5,a5,-1
	add	a4,a4,a5
	.loc 3 207 35
	li	a5,-4096
	and	a5,a4,a5
.L6:
	.loc 3 208 1
	mv	a0,a5
	addi	sp,sp,16
	.cfi_def_cfa_offset 0
	jr	ra
	.cfi_endproc
.LFE59:
	.size	page_align, .-page_align
	.align	2
	.type	get_pgd, @function
get_pgd:
.LFB63:
	.loc 3 268 35
	.cfi_startproc
	.loc 3 270 12
	lla	a5,_s_kernel_pgd
	.loc 3 271 1
	mv	a0,a5
	ret
	.cfi_endproc
.LFE63:
	.size	get_pgd, .-get_pgd
	.globl	pool_btmps
	.bss
	.align	3
	.type	pool_btmps, @object
	.size	pool_btmps, 691
pool_btmps:
	.zero	691
	.globl	kernel_ppool
	.align	3
	.type	kernel_ppool, @object
	.size	kernel_ppool, 40
kernel_ppool:
	.zero	40
	.globl	user_ppool
	.align	3
	.type	user_ppool, @object
	.size	user_ppool, 40
user_ppool:
	.zero	40
	.globl	kernel_vpool
	.align	3
	.type	kernel_vpool, @object
	.size	kernel_vpool, 32
kernel_vpool:
	.zero	32
	.section	.rodata
	.align	3
.LC17:
	.string	"kernel_ppool lock"
	.align	3
.LC18:
	.string	"user_ppool lock"
	.align	3
.LC19:
	.string	"kernel_vpool lock"
	.text
	.align	2
	.globl	init_pools
	.type	init_pools, @function
init_pools:
.LFB73:
	.file 4 "kernel/mm.c"
	.loc 4 59 56
	.cfi_startproc
	addi	sp,sp,-48
	.cfi_def_cfa_offset 48
	sd	ra,40(sp)
	.cfi_offset 1, -8
	sd	a0,8(sp)
	sd	a1,0(sp)
	.loc 4 62 9
	li	a5,1024
	sd	a5,24(sp)
	.loc 4 63 9
	li	a5,4096
	addi	a5,a5,-1024
	sd	a5,16(sp)
	.loc 4 66 23
	lla	a5,kernel_ppool
	ld	a4,24(sp)
	sd	a4,16(a5)
	.loc 4 67 30
	lla	a5,kernel_ppool
	ld	a4,8(sp)
	sd	a4,8(a5)
	.loc 4 68 23
	lla	a5,kernel_ppool
	lla	a4,pool_btmps
	sd	a4,0(a5)
	.loc 4 69 17
	lla	a5,kernel_ppool
	ld	a5,0(a5)
	.loc 4 69 60
	lla	a4,pool_btmps+16
	.loc 4 69 29
	sd	a4,8(a5)
	.loc 4 70 5
	lla	a5,kernel_ppool
	ld	a5,0(a5)
	li	a1,129
	mv	a0,a5
	call	bitmap_init
	.loc 4 71 5
	lla	a1,.LC17
	lla	a0,kernel_ppool+24
	call	spinlock_init
	.loc 4 74 21
	lla	a5,user_ppool
	ld	a4,16(sp)
	sd	a4,16(a5)
	.loc 4 75 42
	ld	a4,8(sp)
	ld	a5,24(sp)
	add	a4,a4,a5
	.loc 4 75 28
	lla	a5,user_ppool
	sd	a4,8(a5)
	.loc 4 76 21
	lla	a5,user_ppool
	lla	a4,pool_btmps+290
	sd	a4,0(a5)
	.loc 4 77 15
	lla	a5,user_ppool
	ld	a5,0(a5)
	.loc 4 77 56
	lla	a4,pool_btmps+306
	.loc 4 77 27
	sd	a4,8(a5)
	.loc 4 78 5
	lla	a5,user_ppool
	ld	a5,0(a5)
	li	a1,385
	mv	a0,a5
	call	bitmap_init
	.loc 4 79 5
	lla	a1,.LC18
	lla	a0,user_ppool+24
	call	spinlock_init
	.loc 4 87 32
	lla	a5,_e_kernel
	li	a1,1
	mv	a0,a5
	call	page_align
	mv	a4,a0
	.loc 4 87 30
	lla	a5,kernel_vpool
	sd	a4,8(a5)
	.loc 4 88 23
	lla	a5,kernel_vpool
	lla	a4,pool_btmps+145
	sd	a4,0(a5)
	.loc 4 89 17
	lla	a5,kernel_vpool
	ld	a5,0(a5)
	.loc 4 89 60
	lla	a4,pool_btmps+161
	.loc 4 89 29
	sd	a4,8(a5)
	.loc 4 90 5
	lla	a5,kernel_vpool
	ld	a5,0(a5)
	li	a1,129
	mv	a0,a5
	call	bitmap_init
	.loc 4 91 5
	lla	a1,.LC19
	lla	a0,kernel_vpool+16
	call	spinlock_init
	.loc 4 92 1
	nop
	ld	ra,40(sp)
	.cfi_restore 1
	addi	sp,sp,48
	.cfi_def_cfa_offset 0
	jr	ra
	.cfi_endproc
.LFE73:
	.size	init_pools, .-init_pools
	.section	.rodata
	.align	3
.LC20:
	.string	"Memory Management Info:\n"
	.align	3
.LC21:
	.string	"\ttotal physical pages available: %#X\n"
	.align	3
.LC22:
	.string	"\tkernel physical pool is at: %#X\n"
	.align	3
.LC23:
	.string	"\t%#X kernel physical pages available, start from %#X\n"
	.align	3
.LC24:
	.string	"\tuser physical pool is at: %#X\n"
	.align	3
.LC25:
	.string	"\t%#X user physical pages available, start from %#X\n"
	.text
	.align	2
	.globl	memory_init
	.type	memory_init, @function
memory_init:
.LFB74:
	.loc 4 95 55
	.cfi_startproc
	addi	sp,sp,-48
	.cfi_def_cfa_offset 48
	sd	ra,40(sp)
	.cfi_offset 1, -8
	sd	a0,8(sp)
	sd	a1,0(sp)
	.loc 4 96 19
	li	a1,1
	ld	a0,8(sp)
	call	page_align
	sd	a0,8(sp)
	.loc 4 97 17
	li	a1,0
	ld	a0,0(sp)
	call	page_align
	sd	a0,0(sp)
	.loc 4 98 37
	ld	a4,0(sp)
	ld	a5,8(sp)
	sub	a5,a4,a5
	.loc 4 98 52
	srli	a5,a5,12
	.loc 4 98 12
	addi	a5,a5,1
	sd	a5,24(sp)
	.loc 4 101 5
	ld	a1,24(sp)
	ld	a0,8(sp)
	call	init_pools
	.loc 4 104 5
	lla	a0,.LC20
	call	kprintf
	.loc 4 105 5
	ld	a1,24(sp)
	lla	a0,.LC21
	call	kprintf
	.loc 4 106 5
	lla	a1,kernel_ppool
	lla	a0,.LC22
	call	kprintf
	.loc 4 107 5
	lla	a5,kernel_ppool
	ld	a4,16(a5)
	lla	a5,kernel_ppool
	ld	a5,8(a5)
	mv	a2,a5
	mv	a1,a4
	lla	a0,.LC23
	call	kprintf
	.loc 4 108 5
	lla	a1,user_ppool
	lla	a0,.LC24
	call	kprintf
	.loc 4 109 5
	lla	a5,user_ppool
	ld	a4,16(a5)
	lla	a5,user_ppool
	ld	a5,8(a5)
	mv	a2,a5
	mv	a1,a4
	lla	a0,.LC25
	call	kprintf
	.loc 4 110 1
	nop
	ld	ra,40(sp)
	.cfi_restore 1
	addi	sp,sp,48
	.cfi_def_cfa_offset 0
	jr	ra
	.cfi_endproc
.LFE74:
	.size	memory_init, .-memory_init
	.section	.rodata
	.align	3
.LC26:
	.string	"\"bit_idx=%d, cannot find a physical page!\""
	.align	3
.LC27:
	.string	"bit_idx != -1"
	.align	3
.LC28:
	.string	"kernel/mm.c"
	.text
	.align	2
	.globl	alloc_ppage
	.type	alloc_ppage, @function
alloc_ppage:
.LFB75:
	.loc 4 113 31
	.cfi_startproc
	addi	sp,sp,-64
	.cfi_def_cfa_offset 64
	sd	ra,56(sp)
	.cfi_offset 1, -8
	mv	a5,a0
	sb	a5,15(sp)
	.loc 4 114 53
	lbu	a5,15(sp)
	andi	a4,a5,0xff
	li	a5,1
	bne	a4,a5,.L12
	.loc 4 114 53 is_stmt 0 discriminator 1
	lla	a5,kernel_ppool
	j	.L13
.L12:
	.loc 4 114 53 discriminator 2
	lla	a5,user_ppool
.L13:
	.loc 4 114 14 is_stmt 1 discriminator 4
	sd	a5,40(sp)
	.loc 4 116 24 discriminator 4
	ld	a5,40(sp)
	ld	a5,0(a5)
	li	a1,1
	mv	a0,a5
	call	bitmap_scan
	sd	a0,32(sp)
	.loc 4 118 8 discriminator 4
	ld	a4,32(sp)
	li	a5,-1
	bne	a4,a5,.L14
	.loc 4 118 33 discriminator 1
	ld	a5,32(sp)
	lla	a4,.LC26
	lla	a3,.LC27
	lla	a2,__func__.7
	li	a1,118
	lla	a0,.LC28
	call	kpanic_spin
.L14:
	.loc 4 120 5
	ld	a5,40(sp)
	addi	a5,a5,24
	mv	a0,a5
	call	spinlock_acquire
	.loc 4 121 5
	ld	a5,40(sp)
	ld	a5,0(a5)
	li	a2,1
	ld	a1,32(sp)
	mv	a0,a5
	call	bitmap_set
	.loc 4 122 5
	ld	a5,40(sp)
	addi	a5,a5,24
	mv	a0,a5
	call	spinlock_release
	.loc 4 125 24
	ld	a5,40(sp)
	ld	a5,8(a5)
	.loc 4 125 48
	ld	a4,32(sp)
	slli	a4,a4,12
	.loc 4 125 12
	add	a5,a5,a4
	sd	a5,24(sp)
	.loc 4 126 5
	ld	a5,24(sp)
	li	a2,4096
	li	a1,0
	mv	a0,a5
	call	memset
	.loc 4 128 12
	ld	a5,24(sp)
	.loc 4 129 1
	mv	a0,a5
	ld	ra,56(sp)
	.cfi_restore 1
	addi	sp,sp,64
	.cfi_def_cfa_offset 0
	jr	ra
	.cfi_endproc
.LFE75:
	.size	alloc_ppage, .-alloc_ppage
	.section	.rodata
	.align	3
.LC29:
	.string	"\"bit_idx shouldn't be negative, bit_idx = %d!\""
	.align	3
.LC30:
	.string	"bit_idx >= 0"
	.text
	.align	2
	.globl	free_ppage
	.type	free_ppage, @function
free_ppage:
.LFB76:
	.loc 4 132 42
	.cfi_startproc
	addi	sp,sp,-48
	.cfi_def_cfa_offset 48
	sd	ra,40(sp)
	.cfi_offset 1, -8
	sd	a0,8(sp)
	mv	a5,a1
	sb	a5,7(sp)
	.loc 4 133 53
	lbu	a5,7(sp)
	andi	a4,a5,0xff
	li	a5,1
	bne	a4,a5,.L17
	.loc 4 133 53 is_stmt 0 discriminator 1
	lla	a5,kernel_ppool
	j	.L18
.L17:
	.loc 4 133 53 discriminator 2
	lla	a5,user_ppool
.L18:
	.loc 4 133 14 is_stmt 1 discriminator 4
	sd	a5,24(sp)
	.loc 4 135 37 discriminator 4
	ld	a5,24(sp)
	ld	a5,8(a5)
	.loc 4 135 31 discriminator 4
	ld	a4,8(sp)
	sub	a5,a4,a5
	.loc 4 135 52 discriminator 4
	srli	a5,a5,12
	.loc 4 135 14 discriminator 4
	sd	a5,16(sp)
	.loc 4 136 8 discriminator 4
	ld	a5,16(sp)
	bge	a5,zero,.L19
	.loc 4 136 32 discriminator 1
	ld	a5,16(sp)
	lla	a4,.LC29
	lla	a3,.LC30
	lla	a2,__func__.6
	li	a1,136
	lla	a0,.LC28
	call	kpanic_spin
.L19:
	.loc 4 138 5
	ld	a5,24(sp)
	addi	a5,a5,24
	mv	a0,a5
	call	spinlock_acquire
	.loc 4 139 5
	ld	a5,24(sp)
	ld	a5,0(a5)
	li	a2,0
	ld	a1,16(sp)
	mv	a0,a5
	call	bitmap_set
	.loc 4 140 5
	ld	a5,24(sp)
	addi	a5,a5,24
	mv	a0,a5
	call	spinlock_release
	.loc 4 141 1
	nop
	ld	ra,40(sp)
	.cfi_restore 1
	addi	sp,sp,48
	.cfi_def_cfa_offset 0
	jr	ra
	.cfi_endproc
.LFE76:
	.size	free_ppage, .-free_ppage
	.section	.rodata
	.align	3
.LC31:
	.string	"\"vpool shouldn't be NULL!\""
	.align	3
.LC32:
	.string	"vpool != NULL"
	.align	3
.LC33:
	.string	"\"bit_idx=%d, cannot find a virtual page!\""
	.text
	.align	2
	.globl	alloc_vpage
	.type	alloc_vpage, @function
alloc_vpage:
.LFB77:
	.loc 4 144 47
	.cfi_startproc
	addi	sp,sp,-48
	.cfi_def_cfa_offset 48
	sd	ra,40(sp)
	.cfi_offset 1, -8
	sd	a0,8(sp)
	sd	a1,0(sp)
	.loc 4 145 8
	ld	a5,8(sp)
	bne	a5,zero,.L21
	.loc 4 145 40 discriminator 1
	lla	a4,.LC31
	lla	a3,.LC32
	lla	a2,__func__.5
	li	a1,145
	lla	a0,.LC28
	call	kpanic_spin
.L21:
	.loc 4 147 24
	ld	a5,8(sp)
	ld	a5,0(a5)
	ld	a1,0(sp)
	mv	a0,a5
	call	bitmap_scan
	sd	a0,24(sp)
	.loc 4 149 8
	ld	a4,24(sp)
	li	a5,-1
	bne	a4,a5,.L22
	.loc 4 149 33 discriminator 1
	ld	a5,24(sp)
	lla	a4,.LC33
	lla	a3,.LC27
	lla	a2,__func__.5
	li	a1,149
	lla	a0,.LC28
	call	kpanic_spin
.L22:
	.loc 4 150 5
	ld	a5,8(sp)
	addi	a5,a5,16
	mv	a0,a5
	call	spinlock_acquire
	.loc 4 151 5
	ld	a5,8(sp)
	ld	a5,0(a5)
	li	a2,1
	ld	a1,24(sp)
	mv	a0,a5
	call	bitmap_set
	.loc 4 152 5
	ld	a5,8(sp)
	addi	a5,a5,16
	mv	a0,a5
	call	spinlock_release
	.loc 4 154 17
	ld	a5,8(sp)
	ld	a5,8(a5)
	.loc 4 154 41
	ld	a4,24(sp)
	slli	a4,a4,12
	.loc 4 154 31
	add	a5,a5,a4
	.loc 4 155 1
	mv	a0,a5
	ld	ra,40(sp)
	.cfi_restore 1
	addi	sp,sp,48
	.cfi_def_cfa_offset 0
	jr	ra
	.cfi_endproc
.LFE77:
	.size	alloc_vpage, .-alloc_vpage
	.align	2
	.globl	free_vpage
	.type	free_vpage, @function
free_vpage:
.LFB78:
	.loc 4 158 46
	.cfi_startproc
	addi	sp,sp,-48
	.cfi_def_cfa_offset 48
	sd	ra,40(sp)
	.cfi_offset 1, -8
	sd	a0,8(sp)
	sd	a1,0(sp)
	.loc 4 159 8
	ld	a5,8(sp)
	bne	a5,zero,.L25
	.loc 4 159 40 discriminator 1
	lla	a4,.LC31
	lla	a3,.LC32
	lla	a2,__func__.4
	li	a1,159
	lla	a0,.LC28
	call	kpanic_spin
.L25:
	.loc 4 161 38
	ld	a5,8(sp)
	ld	a5,8(a5)
	.loc 4 161 31
	ld	a4,0(sp)
	sub	a5,a4,a5
	.loc 4 161 53
	srli	a5,a5,12
	.loc 4 161 14
	sd	a5,24(sp)
	.loc 4 162 8
	ld	a5,24(sp)
	bge	a5,zero,.L26
	.loc 4 162 32 discriminator 1
	ld	a5,24(sp)
	lla	a4,.LC29
	lla	a3,.LC30
	lla	a2,__func__.4
	li	a1,162
	lla	a0,.LC28
	call	kpanic_spin
.L26:
	.loc 4 163 5
	ld	a5,8(sp)
	addi	a5,a5,16
	mv	a0,a5
	call	spinlock_acquire
	.loc 4 164 5
	ld	a5,8(sp)
	ld	a5,0(a5)
	li	a2,0
	ld	a1,24(sp)
	mv	a0,a5
	call	bitmap_set
	.loc 4 165 5
	ld	a5,8(sp)
	addi	a5,a5,16
	mv	a0,a5
	call	spinlock_release
	.loc 4 166 1
	nop
	ld	ra,40(sp)
	.cfi_restore 1
	addi	sp,sp,48
	.cfi_def_cfa_offset 0
	jr	ra
	.cfi_endproc
.LFE78:
	.size	free_vpage, .-free_vpage
	.align	2
	.globl	get_ppool
	.type	get_ppool, @function
get_ppool:
.LFB79:
	.loc 4 169 25
	.cfi_startproc
	.loc 4 171 12
	lla	a5,kernel_ppool
	.loc 4 172 1
	mv	a0,a5
	ret
	.cfi_endproc
.LFE79:
	.size	get_ppool, .-get_ppool
	.align	2
	.globl	get_vpool
	.type	get_vpool, @function
get_vpool:
.LFB80:
	.loc 4 175 25
	.cfi_startproc
	.loc 4 177 12
	lla	a5,kernel_vpool
	.loc 4 178 1
	mv	a0,a5
	ret
	.cfi_endproc
.LFE80:
	.size	get_vpool, .-get_vpool
	.section	.rodata
	.align	3
.LC34:
	.string	"\"cnt must greater than zero, but cut = %d!\""
	.align	3
.LC35:
	.string	"cnt > 0"
	.align	3
.LC36:
	.string	"\"Only kernel page is supported now, you're trying to malloc a user page, kpage=%d!\""
	.align	3
.LC37:
	.string	"kpage == True"
	.align	3
.LC38:
	.string	"kernel"
	.align	3
.LC39:
	.string	"user"
	.align	3
.LC40:
	.string	"Malloc a %s page\n"
	.text
	.align	2
	.globl	malloc_page
	.type	malloc_page, @function
malloc_page:
.LFB81:
	.loc 4 186 42
	.cfi_startproc
	addi	sp,sp,-80
	.cfi_def_cfa_offset 80
	sd	ra,72(sp)
	.cfi_offset 1, -8
	sd	a0,8(sp)
	mv	a5,a1
	sb	a5,7(sp)
	.loc 4 187 8
	ld	a5,8(sp)
	bne	a5,zero,.L32
	.loc 4 187 27 discriminator 1
	ld	a5,8(sp)
	lla	a4,.LC34
	lla	a3,.LC35
	lla	a2,__func__.3
	li	a1,187
	lla	a0,.LC28
	call	kpanic_spin
.L32:
	.loc 4 189 8
	lbu	a5,7(sp)
	andi	a4,a5,0xff
	li	a5,1
	beq	a4,a5,.L33
	.loc 4 189 33 discriminator 1
	lbu	a5,7(sp)
	sext.w	a5,a5
	lla	a4,.LC36
	lla	a3,.LC37
	lla	a2,__func__.3
	li	a1,189
	lla	a0,.LC28
	call	kpanic_spin
.L33:
	.loc 4 192 5
	lbu	a5,7(sp)
	andi	a4,a5,0xff
	li	a5,1
	bne	a4,a5,.L34
	.loc 4 192 5 is_stmt 0 discriminator 1
	lla	a5,.LC38
	j	.L35
.L34:
	.loc 4 192 5 discriminator 2
	lla	a5,.LC39
.L35:
	.loc 4 192 5 discriminator 4
	mv	a1,a5
	lla	a0,.LC40
	call	kprintf
	.loc 4 195 18 is_stmt 1 discriminator 4
	call	get_pgd
	sd	a0,48(sp)
	.loc 4 198 22 discriminator 4
	call	get_vpool
	sd	a0,40(sp)
	.loc 4 201 44 discriminator 4
	ld	a1,8(sp)
	ld	a0,40(sp)
	call	alloc_vpage
	sd	a0,56(sp)
	.loc 4 203 11 discriminator 4
	j	.L36
.L37:
.LBB3:
	.loc 4 205 48
	lbu	a5,7(sp)
	mv	a0,a5
	call	alloc_ppage
	sd	a0,32(sp)
	.loc 4 206 25
	li	a5,231
	sd	a5,24(sp)
	.loc 4 209 9
	li	a5,0
	ld	a4,24(sp)
	li	a3,4096
	ld	a2,32(sp)
	ld	a1,56(sp)
	ld	a0,48(sp)
	call	create_mapping
	.loc 4 212 15
	ld	a4,56(sp)
	li	a5,4096
	add	a5,a4,a5
	sd	a5,56(sp)
.L36:
.LBE3:
	.loc 4 203 15
	ld	a5,8(sp)
	addi	a4,a5,-1
	sd	a4,8(sp)
	.loc 4 203 18
	bne	a5,zero,.L37
	.loc 4 214 12
	ld	a5,56(sp)
	.loc 4 215 1
	mv	a0,a5
	ld	ra,72(sp)
	.cfi_restore 1
	addi	sp,sp,80
	.cfi_def_cfa_offset 0
	jr	ra
	.cfi_endproc
.LFE81:
	.size	malloc_page, .-malloc_page
	.section	.rodata
	.align	3
.LC41:
	.string	"\"walk va too much\""
	.align	3
.LC42:
	.string	"va<PHYSTOP"
	.text
	.align	2
	.globl	walk
	.type	walk, @function
walk:
.LFB82:
	.loc 4 260 1
	.cfi_startproc
	addi	sp,sp,-64
	.cfi_def_cfa_offset 64
	sd	ra,56(sp)
	.cfi_offset 1, -8
	sd	a0,24(sp)
	sd	a1,16(sp)
	mv	a5,a2
	sw	a5,12(sp)
	.loc 4 263 8
	ld	a4,16(sp)
	li	a5,537
	slli	a5,a5,22
	bltu	a4,a5,.L40
	.loc 4 263 33 discriminator 1
	li	a5,0
	lla	a4,.LC41
	lla	a3,.LC42
	lla	a2,__func__.2
	li	a1,263
	lla	a0,.LC28
	call	kpanic_spin
.L40:
.LBB4:
	.loc 4 264 11
	li	a5,2
	sw	a5,44(sp)
	.loc 4 264 3
	j	.L41
.L47:
.LBB5:
	.loc 4 265 59
	lw	a5,44(sp)
	mv	a4,a5
	mv	a5,a4
	slliw	a5,a5,3
	addw	a5,a5,a4
	sext.w	a5,a5
	.loc 4 265 56
	addiw	a5,a5,12
	sext.w	a5,a5
	.loc 4 265 49
	mv	a4,a5
	ld	a5,16(sp)
	srl	a5,a5,a4
	.loc 4 265 71
	andi	a5,a5,511
	.loc 4 265 28
	slli	a5,a5,3
	.loc 4 265 12
	ld	a4,24(sp)
	add	a5,a4,a5
	sd	a5,32(sp)
	.loc 4 266 8
	ld	a5,32(sp)
	ld	a5,0(a5)
	.loc 4 266 13
	andi	a5,a5,1
	.loc 4 266 7
	beq	a5,zero,.L42
	.loc 4 267 35
	ld	a5,32(sp)
	ld	a5,0(a5)
	.loc 4 267 41
	srli	a5,a5,10
	.loc 4 267 48
	slli	a5,a5,12
	.loc 4 267 17
	sd	a5,24(sp)
	j	.L43
.L42:
	.loc 4 269 9
	lw	a5,12(sp)
	sext.w	a5,a5
	beq	a5,zero,.L44
	.loc 4 269 41 discriminator 1
	li	a0,1
	call	alloc_ppage
	mv	a5,a0
	.loc 4 269 31 discriminator 1
	sd	a5,24(sp)
	.loc 4 269 17 discriminator 1
	ld	a5,24(sp)
	bne	a5,zero,.L45
.L44:
	.loc 4 270 16
	li	a5,0
	j	.L46
.L45:
	.loc 4 271 7
	li	a2,4096
	li	a1,0
	ld	a0,24(sp)
	call	memset
	.loc 4 272 17
	ld	a5,24(sp)
	.loc 4 272 38
	srli	a5,a5,12
	.loc 4 272 45
	slli	a5,a5,10
	.loc 4 272 52
	ori	a4,a5,1
	.loc 4 272 12
	ld	a5,32(sp)
	sd	a4,0(a5)
.L43:
.LBE5:
	.loc 4 264 38 discriminator 2
	lw	a5,44(sp)
	addiw	a5,a5,-1
	sw	a5,44(sp)
.L41:
	.loc 4 264 28 discriminator 1
	lw	a5,44(sp)
	sext.w	a5,a5
	bgt	a5,zero,.L47
.LBE4:
	.loc 4 275 41
	ld	a5,16(sp)
	srli	a5,a5,12
	.loc 4 275 59
	andi	a5,a5,511
	.loc 4 275 20
	slli	a5,a5,3
	.loc 4 275 10
	ld	a4,24(sp)
	add	a5,a4,a5
.L46:
	.loc 4 276 1
	mv	a0,a5
	ld	ra,56(sp)
	.cfi_restore 1
	addi	sp,sp,64
	.cfi_def_cfa_offset 0
	jr	ra
	.cfi_endproc
.LFE82:
	.size	walk, .-walk
	.section	.rodata
	.align	3
.LC43:
	.string	"\"mappages:size error\""
	.align	3
.LC44:
	.string	"size>0"
	.align	3
.LC45:
	.string	"\"mappage:repeat map\""
	.align	3
.LC46:
	.string	"!(*pte&PTE_V)"
	.text
	.align	2
	.globl	mappages
	.type	mappages, @function
mappages:
.LFB83:
	.loc 4 284 1
	.cfi_startproc
	addi	sp,sp,-96
	.cfi_def_cfa_offset 96
	sd	ra,88(sp)
	.cfi_offset 1, -8
	sd	a0,40(sp)
	sd	a1,32(sp)
	sd	a2,24(sp)
	sd	a3,16(sp)
	mv	a5,a4
	sw	a5,12(sp)
	.loc 4 290 6
	ld	a5,24(sp)
	bne	a5,zero,.L49
	.loc 4 290 24 discriminator 1
	li	a5,1
	lla	a4,.LC43
	lla	a3,.LC44
	lla	a2,__func__.1
	li	a1,290
	lla	a0,.LC28
	call	kpanic_spin
.L49:
	.loc 4 293 5
	ld	a4,32(sp)
	li	a5,-4096
	and	a5,a4,a5
	sd	a5,72(sp)
	.loc 4 294 16
	ld	a4,32(sp)
	ld	a5,24(sp)
	add	a5,a4,a5
	.loc 4 294 23
	addi	a4,a5,-1
	.loc 4 294 8
	li	a5,-4096
	and	a5,a4,a5
	sd	a5,64(sp)
.L55:
	.loc 4 296 15
	li	a2,1
	ld	a1,72(sp)
	ld	a0,40(sp)
	call	walk
	sd	a0,56(sp)
	.loc 4 296 7
	ld	a5,56(sp)
	bne	a5,zero,.L50
	.loc 4 297 14
	li	a5,-1
	j	.L51
.L50:
	.loc 4 300 11
	ld	a5,56(sp)
	ld	a5,0(a5)
	.loc 4 300 15
	andi	a5,a5,1
	.loc 4 300 8
	beq	a5,zero,.L52
	.loc 4 300 37 discriminator 1
	li	a5,0
	lla	a4,.LC45
	lla	a3,.LC46
	lla	a2,__func__.1
	li	a1,300
	lla	a0,.LC28
	call	kpanic_spin
.L52:
	.loc 4 301 29
	ld	a5,16(sp)
	srli	a5,a5,12
	.loc 4 301 36
	slli	a4,a5,10
	.loc 4 301 43
	lw	a5,12(sp)
	or	a5,a4,a5
	.loc 4 301 50
	ori	a4,a5,1
	.loc 4 301 10
	ld	a5,56(sp)
	sd	a4,0(a5)
	.loc 4 302 7
	ld	a4,72(sp)
	ld	a5,64(sp)
	beq	a4,a5,.L57
	.loc 4 304 7
	ld	a4,72(sp)
	li	a5,4096
	add	a5,a4,a5
	sd	a5,72(sp)
	.loc 4 305 8
	ld	a4,16(sp)
	li	a5,4096
	add	a5,a4,a5
	sd	a5,16(sp)
	.loc 4 296 7
	j	.L55
.L57:
	.loc 4 303 7
	nop
	.loc 4 307 10
	li	a5,0
.L51:
	.loc 4 308 1
	mv	a0,a5
	ld	ra,88(sp)
	.cfi_restore 1
	addi	sp,sp,96
	.cfi_def_cfa_offset 0
	jr	ra
	.cfi_endproc
.LFE83:
	.size	mappages, .-mappages
	.align	2
	.globl	uvmcreate
	.type	uvmcreate, @function
uvmcreate:
.LFB84:
	.loc 4 319 1
	.cfi_startproc
	addi	sp,sp,-32
	.cfi_def_cfa_offset 32
	sd	ra,24(sp)
	.cfi_offset 1, -8
	.loc 4 321 29
	li	a0,1
	call	alloc_ppage
	mv	a5,a0
	.loc 4 321 13
	sd	a5,8(sp)
	.loc 4 322 5
	ld	a5,8(sp)
	bne	a5,zero,.L59
	.loc 4 323 12
	li	a5,0
	j	.L60
.L59:
	.loc 4 324 3
	li	a2,4096
	li	a1,0
	ld	a0,8(sp)
	call	memset
	.loc 4 325 10
	ld	a5,8(sp)
.L60:
	.loc 4 326 1
	mv	a0,a5
	ld	ra,24(sp)
	.cfi_restore 1
	addi	sp,sp,32
	.cfi_def_cfa_offset 0
	jr	ra
	.cfi_endproc
.LFE84:
	.size	uvmcreate, .-uvmcreate
	.section	.rodata
	.align	3
.LC47:
	.string	"\"uvmfirst: more than a page\""
	.align	3
.LC48:
	.string	"sz<=PGSIZE"
	.text
	.align	2
	.globl	uvmfirst
	.type	uvmfirst, @function
uvmfirst:
.LFB85:
	.loc 4 332 1
	.cfi_startproc
	addi	sp,sp,-64
	.cfi_def_cfa_offset 64
	sd	ra,56(sp)
	.cfi_offset 1, -8
	sd	a0,24(sp)
	sd	a1,16(sp)
	mv	a5,a2
	sw	a5,12(sp)
	.loc 4 337 6
	lw	a5,12(sp)
	sext.w	a4,a5
	li	a5,4096
	bleu	a4,a5,.L62
	.loc 4 337 26 discriminator 1
	li	a5,0
	lla	a4,.LC47
	lla	a3,.LC48
	lla	a2,__func__.0
	li	a1,337
	lla	a0,.LC28
	call	kpanic_spin
.L62:
	.loc 4 338 16
	li	a0,1
	call	alloc_ppage
	mv	a5,a0
	.loc 4 338 7
	sd	a5,40(sp)
	.loc 4 339 3
	li	a2,4096
	li	a1,0
	ld	a0,40(sp)
	call	memset
	.loc 4 340 3
	ld	a5,40(sp)
	li	a4,30
	mv	a3,a5
	li	a2,4096
	li	a1,0
	ld	a0,24(sp)
	call	mappages
	.loc 4 341 3
	lwu	a5,12(sp)
	mv	a2,a5
	ld	a1,16(sp)
	ld	a0,40(sp)
	call	memmove
	.loc 4 342 1
	nop
	ld	ra,56(sp)
	.cfi_restore 1
	addi	sp,sp,64
	.cfi_def_cfa_offset 0
	jr	ra
	.cfi_endproc
.LFE85:
	.size	uvmfirst, .-uvmfirst
	.section	.rodata
	.align	3
	.type	__func__.7, @object
	.size	__func__.7, 12
__func__.7:
	.string	"alloc_ppage"
	.align	3
	.type	__func__.6, @object
	.size	__func__.6, 11
__func__.6:
	.string	"free_ppage"
	.align	3
	.type	__func__.5, @object
	.size	__func__.5, 12
__func__.5:
	.string	"alloc_vpage"
	.align	3
	.type	__func__.4, @object
	.size	__func__.4, 11
__func__.4:
	.string	"free_vpage"
	.align	3
	.type	__func__.3, @object
	.size	__func__.3, 12
__func__.3:
	.string	"malloc_page"
	.section	.srodata,"a"
	.align	3
	.type	__func__.2, @object
	.size	__func__.2, 5
__func__.2:
	.string	"walk"
	.section	.rodata
	.align	3
	.type	__func__.1, @object
	.size	__func__.1, 9
__func__.1:
	.string	"mappages"
	.align	3
	.type	__func__.0, @object
	.size	__func__.0, 9
__func__.0:
	.string	"uvmfirst"
	.text
.Letext0:
	.file 5 "include/types.h"
	.file 6 "include/stdbitmap.h"
	.file 7 "include/asm/svxx.h"
	.file 8 "include/kernel/locks.h"
	.file 9 "include/riscv.h"
	.file 10 "include/kernel/mm.h"
	.file 11 "include/stdarg.h"
	.file 12 "include/string.h"
	.file 13 "include/stdfmt.h"
	.file 14 "include/kernel/kstdio.h"