	.file	"process.c"
	.option nopic
	.attribute arch, "rv64i2p0_m2p0_a2p0_f2p0_d2p0"
	.attribute unaligned_access, 0
	.attribute stack_align, 16
	.text
.Ltext0:
	.cfi_sections	.debug_frame
	.file 0 "/home/lighthouse/xzr/oskernel2023-x2w" "kernel/process.c"
	.align	2
	.type	supervisor_interrupt_disable, @function
supervisor_interrupt_disable:
.LFB1:
	.file 1 "include/kernel/ktrap.h"
	.loc 1 44 54
	.cfi_startproc
	addi	sp,sp,-16
	.cfi_def_cfa_offset 16
.LBB2:
	.loc 1 45 22
	li	a5,2
	sd	a5,8(sp)
	.loc 1 45 60
	ld	a5,8(sp)
 #APP
# 45 "include/kernel/ktrap.h" 1
	csrc sstatus, a5
# 0 "" 2
 #NO_APP
.LBE2:
	.loc 1 46 1
	nop
	addi	sp,sp,16
	.cfi_def_cfa_offset 0
	jr	ra
	.cfi_endproc
.LFE1:
	.size	supervisor_interrupt_disable, .-supervisor_interrupt_disable
	.section	.rodata
	.align	3
.LC0:
	.string	"===================== Error Message =====================%c"
	.align	3
.LC1:
	.string	"filename: %s, at line %d\n"
	.align	3
.LC2:
	.string	"unsatisfied condition: %s\n"
	.align	3
.LC3:
	.string	"assert check failed in function: %s\n"
	.align	3
.LC4:
	.string	"info message: %s\n"
	.text
	.align	2
	.type	kpanic_spin, @function
kpanic_spin:
.LFB10:
	.file 2 "include/kernel/kdebug.h"
	.loc 2 28 119
	.cfi_startproc
	addi	sp,sp,-1136
	.cfi_def_cfa_offset 1136
	sd	ra,1096(sp)
	.cfi_offset 1, -40
	sd	a0,40(sp)
	sd	a2,24(sp)
	sd	a3,16(sp)
	sd	a4,8(sp)
	sd	a5,1112(sp)
	sd	a6,1120(sp)
	sd	a7,1128(sp)
	mv	a5,a1
	sw	a5,36(sp)
	.loc 2 29 5
	call	supervisor_interrupt_disable
	.loc 2 30 5
	li	a1,10
	lla	a0,.LC0
	call	kprintf
	.loc 2 31 5
	lw	a5,36(sp)
	mv	a2,a5
	ld	a1,40(sp)
	lla	a0,.LC1
	call	kprintf
	.loc 2 32 5
	ld	a1,16(sp)
	lla	a0,.LC2
	call	kprintf
	.loc 2 33 5
	ld	a1,24(sp)
	lla	a0,.LC3
	call	kprintf
	.loc 2 34 10
	sd	zero,64(sp)
	addi	a5,sp,72
	li	a4,1016
	mv	a2,a4
	li	a1,0
	mv	a0,a5
	call	memset
	.loc 2 36 5
	addi	a5,sp,1136
	sd	a5,0(sp)
	ld	a5,0(sp)
	addi	a5,a5,-24
	sd	a5,56(sp)
	.loc 2 37 5
	ld	a4,56(sp)
	addi	a5,sp,64
	mv	a2,a4
	ld	a1,8(sp)
	mv	a0,a5
	call	vsprintf
	.loc 2 38 5
	addi	a5,sp,64
	mv	a1,a5
	lla	a0,.LC4
	call	kprintf
.L3:
	.loc 2 39 11 discriminator 1
	nop
	j	.L3
	.cfi_endproc
.LFE10:
	.size	kpanic_spin, .-kpanic_spin
	.align	2
	.type	r_sstatus, @function
r_sstatus:
.LFB15:
	.file 3 "include/riscv.h"
	.loc 3 53 1
	.cfi_startproc
	addi	sp,sp,-16
	.cfi_def_cfa_offset 16
	.loc 3 55 3
 #APP
# 55 "include/riscv.h" 1
	csrr a5, sstatus
# 0 "" 2
 #NO_APP
	sd	a5,8(sp)
	.loc 3 56 10
	ld	a5,8(sp)
	.loc 3 57 1
	mv	a0,a5
	addi	sp,sp,16
	.cfi_def_cfa_offset 0
	jr	ra
	.cfi_endproc
.LFE15:
	.size	r_sstatus, .-r_sstatus
	.align	2
	.type	w_sstatus, @function
w_sstatus:
.LFB16:
	.loc 3 61 1
	.cfi_startproc
	addi	sp,sp,-16
	.cfi_def_cfa_offset 16
	sd	a0,8(sp)
	.loc 3 62 3
	ld	a5,8(sp)
 #APP
# 62 "include/riscv.h" 1
	csrw sstatus, a5
# 0 "" 2
	.loc 3 63 1
 #NO_APP
	nop
	addi	sp,sp,16
	.cfi_def_cfa_offset 0
	jr	ra
	.cfi_endproc
.LFE16:
	.size	w_sstatus, .-w_sstatus
	.align	2
	.type	intr_on, @function
intr_on:
.LFB42:
	.loc 3 271 1
	.cfi_startproc
	addi	sp,sp,-16
	.cfi_def_cfa_offset 16
	sd	ra,8(sp)
	.cfi_offset 1, -8
	.loc 3 272 13
	call	r_sstatus
	mv	a5,a0
	.loc 3 272 3
	ori	a5,a5,2
	mv	a0,a5
	call	w_sstatus
	.loc 3 273 1
	nop
	ld	ra,8(sp)
	.cfi_restore 1
	addi	sp,sp,16
	.cfi_def_cfa_offset 0
	jr	ra
	.cfi_endproc
.LFE42:
	.size	intr_on, .-intr_on
	.align	2
	.type	intr_off, @function
intr_off:
.LFB43:
	.loc 3 278 1
	.cfi_startproc
	addi	sp,sp,-16
	.cfi_def_cfa_offset 16
	sd	ra,8(sp)
	.cfi_offset 1, -8
	.loc 3 279 13
	call	r_sstatus
	mv	a5,a0
	.loc 3 279 3
	andi	a5,a5,-3
	mv	a0,a5
	call	w_sstatus
	.loc 3 280 1
	nop
	ld	ra,8(sp)
	.cfi_restore 1
	addi	sp,sp,16
	.cfi_def_cfa_offset 0
	jr	ra
	.cfi_endproc
.LFE43:
	.size	intr_off, .-intr_off
	.align	2
	.type	intr_get, @function
intr_get:
.LFB44:
	.loc 3 285 1
	.cfi_startproc
	addi	sp,sp,-32
	.cfi_def_cfa_offset 32
	sd	ra,24(sp)
	.cfi_offset 1, -8
	.loc 3 286 16
	call	r_sstatus
	sd	a0,8(sp)
	.loc 3 287 13
	ld	a5,8(sp)
	andi	a5,a5,2
	.loc 3 287 29
	snez	a5,a5
	andi	a5,a5,0xff
	sext.w	a5,a5
	.loc 3 288 1
	mv	a0,a5
	ld	ra,24(sp)
	.cfi_restore 1
	addi	sp,sp,32
	.cfi_def_cfa_offset 0
	jr	ra
	.cfi_endproc
.LFE44:
	.size	intr_get, .-intr_get
	.align	2
	.type	read_tp, @function
read_tp:
.LFB50:
	.file 4 "include/process.h"
	.loc 4 131 1
	.cfi_startproc
	addi	sp,sp,-16
	.cfi_def_cfa_offset 16
	.loc 4 133 3
 #APP
# 133 "include/process.h" 1
	mv a5, tp
# 0 "" 2
 #NO_APP
	sd	a5,8(sp)
	.loc 4 134 10
	ld	a5,8(sp)
	.loc 4 135 1
	mv	a0,a5
	addi	sp,sp,16
	.cfi_def_cfa_offset 0
	jr	ra
	.cfi_endproc
.LFE50:
	.size	read_tp, .-read_tp
	.align	2
	.globl	push_off
	.type	push_off, @function
push_off:
.LFB51:
	.loc 4 138 1
	.cfi_startproc
	addi	sp,sp,-32
	.cfi_def_cfa_offset 32
	sd	ra,24(sp)
	.cfi_offset 1, -8
	.loc 4 139 13
	call	intr_get
	mv	a5,a0
	sw	a5,12(sp)
	.loc 4 141 3
	call	intr_off
	.loc 4 142 6
	call	mycpu
	mv	a5,a0
	.loc 4 142 13
	lw	a5,120(a5)
	.loc 4 142 5
	bne	a5,zero,.L14
	.loc 4 143 5
	call	mycpu
	mv	a4,a0
	.loc 4 143 21
	lw	a5,12(sp)
	sw	a5,124(a4)
.L14:
	.loc 4 144 3
	call	mycpu
	mv	a5,a0
	.loc 4 144 10
	lw	a4,120(a5)
	.loc 4 144 17
	addiw	a4,a4,1
	sext.w	a4,a4
	sw	a4,120(a5)
	.loc 4 145 1
	nop
	ld	ra,24(sp)
	.cfi_restore 1
	addi	sp,sp,32
	.cfi_def_cfa_offset 0
	jr	ra
	.cfi_endproc
.LFE51:
	.size	push_off, .-push_off
	.section	.rodata
	.align	3
.LC5:
	.string	"\"pop_off - interruptible\""
	.align	3
.LC6:
	.string	"!intr_get()"
	.align	3
.LC7:
	.string	"include/process.h"
	.align	3
.LC8:
	.string	"\"pop_off\""
	.align	3
.LC9:
	.string	"c->noff>=1"
	.text
	.align	2
	.globl	pop_off
	.type	pop_off, @function
pop_off:
.LFB52:
	.loc 4 148 1
	.cfi_startproc
	addi	sp,sp,-32
	.cfi_def_cfa_offset 32
	sd	ra,24(sp)
	.cfi_offset 1, -8
	.loc 4 149 19
	call	mycpu
	sd	a0,8(sp)
	.loc 4 152 8
	call	intr_get
	mv	a5,a0
	.loc 4 152 6
	beq	a5,zero,.L16
	.loc 4 152 29 discriminator 1
	lla	a4,.LC5
	lla	a3,.LC6
	lla	a2,__func__.1
	li	a1,152
	lla	a0,.LC7
	call	kpanic_spin
.L16:
	.loc 4 155 8
	ld	a5,8(sp)
	lw	a5,120(a5)
	.loc 4 155 6
	bgt	a5,zero,.L17
	.loc 4 155 28 discriminator 1
	lla	a4,.LC8
	lla	a3,.LC9
	lla	a2,__func__.1
	li	a1,155
	lla	a0,.LC7
	call	kpanic_spin
.L17:
	.loc 4 156 4
	ld	a5,8(sp)
	lw	a5,120(a5)
	.loc 4 156 11
	addiw	a5,a5,-1
	sext.w	a4,a5
	ld	a5,8(sp)
	sw	a4,120(a5)
	.loc 4 157 7
	ld	a5,8(sp)
	lw	a5,120(a5)
	.loc 4 157 5
	bne	a5,zero,.L19
	.loc 4 157 23 discriminator 1
	ld	a5,8(sp)
	lw	a5,124(a5)
	.loc 4 157 19 discriminator 1
	beq	a5,zero,.L19
	.loc 4 158 5
	call	intr_on
.L19:
	.loc 4 159 1
	nop
	ld	ra,24(sp)
	.cfi_restore 1
	addi	sp,sp,32
	.cfi_def_cfa_offset 0
	jr	ra
	.cfi_endproc
.LFE52:
	.size	pop_off, .-pop_off
	.section	.rodata
	.align	3
.LC10:
	.string	"Identical Mapping"
	.align	3
	.type	address_markers, @object
	.size	address_markers, 16
address_markers:
	.dword	0
	.dword	.LC10
	.align	3
.LC11:
	.string	"RSW"
	.align	3
.LC12:
	.string	".."
	.align	3
.LC13:
	.string	"D"
	.align	3
.LC14:
	.string	"."
	.align	3
.LC15:
	.string	"A"
	.align	3
.LC16:
	.string	"G"
	.align	3
.LC17:
	.string	"U"
	.align	3
.LC18:
	.string	"X"
	.align	3
.LC19:
	.string	"W"
	.align	3
.LC20:
	.string	"R"
	.align	3
.LC21:
	.string	"V"
	.align	3
	.type	prot_bits, @object
	.size	prot_bits, 288
prot_bits:
	.dword	768
	.dword	768
	.dword	.LC11
	.dword	.LC12
	.dword	128
	.dword	128
	.dword	.LC13
	.dword	.LC14
	.dword	64
	.dword	64
	.dword	.LC15
	.dword	.LC14
	.dword	32
	.dword	32
	.dword	.LC16
	.dword	.LC14
	.dword	16
	.dword	16
	.dword	.LC17
	.dword	.LC14
	.dword	8
	.dword	8
	.dword	.LC18
	.dword	.LC14
	.dword	4
	.dword	4
	.dword	.LC19
	.dword	.LC14
	.dword	2
	.dword	2
	.dword	.LC20
	.dword	.LC14
	.dword	1
	.dword	1
	.dword	.LC21
	.dword	.LC14
	.globl	cpus
	.bss
	.align	3
	.type	cpus, @object
	.size	cpus, 1024
cpus:
	.zero	1024
	.globl	processes
	.align	3
	.type	processes, @object
	.size	processes, 13824
processes:
	.zero	13824
	.globl	initproc
	.section	.sbss,"aw",@nobits
	.align	3
	.type	initproc, @object
	.size	initproc, 8
initproc:
	.zero	8
	.globl	nextpid
	.section	.sdata,"aw"
	.align	2
	.type	nextpid, @object
	.size	nextpid, 4
nextpid:
	.word	1
	.globl	pid_lock
	.bss
	.align	3
	.type	pid_lock, @object
	.size	pid_lock, 16
pid_lock:
	.zero	16
	.globl	wait_lock
	.align	3
	.type	wait_lock, @object
	.size	wait_lock, 16
wait_lock:
	.zero	16
	.section	.rodata
	.align	3
.LC22:
	.string	"\"process[%u] stack malloc error\\n\""
	.align	3
.LC23:
	.string	"pa!=0"
	.align	3
.LC24:
	.string	"kernel/process.c"
	.text
	.align	2
	.globl	process_statck_map
	.type	process_statck_map, @function
process_statck_map:
.LFB76:
	.file 5 "kernel/process.c"
	.loc 5 26 50
	.cfi_startproc
	addi	sp,sp,-64
	.cfi_def_cfa_offset 64
	sd	ra,56(sp)
	.cfi_offset 1, -8
	sd	a0,8(sp)
	.loc 5 27 21
	lla	a5,processes
	sd	a5,40(sp)
	.loc 5 29 5
	j	.L21
.L23:
.LBB3:
	.loc 5 30 21
	li	a0,1
	call	alloc_ppage
	sd	a0,32(sp)
	.loc 5 31 12
	ld	a5,32(sp)
	bne	a5,zero,.L22
	.loc 5 31 29 discriminator 1
	ld	a5,40(sp)
	lla	a4,.LC22
	lla	a3,.LC23
	lla	a2,__func__.0
	li	a1,31
	lla	a0,.LC24
	call	kpanic_spin
.L22:
	.loc 5 32 73
	ld	a4,40(sp)
	lla	a5,processes
	sub	a5,a4,a5
	srai	a4,a5,3
	lla	a5,.LC25
	ld	a5,0(a5)
	mul	a5,a4,a5
	.loc 5 32 64
	sext.w	a5,a5
	.loc 5 32 86
	addiw	a5,a5,1
	sext.w	a5,a5
	.loc 5 32 92
	slliw	a5,a5,13
	sext.w	a5,a5
	mv	a4,a5
	.loc 5 32 60
	li	a5,67108864
	addi	a5,a5,-1
	slli	a5,a5,12
	sub	a5,a5,a4
	.loc 5 32 18
	sd	a5,24(sp)
	.loc 5 33 25
	li	a5,231
	sd	a5,16(sp)
	.loc 5 35 9
	li	a5,0
	ld	a4,16(sp)
	li	a3,4096
	ld	a2,32(sp)
	ld	a1,24(sp)
	ld	a0,8(sp)
	call	create_mapping
.LBE3:
	.loc 5 29 28
	ld	a5,40(sp)
	addi	a5,a5,216
	sd	a5,40(sp)
.L21:
	.loc 5 29 11 discriminator 1
	ld	a4,40(sp)
	lla	a5,processes+13824
	bltu	a4,a5,.L23
	.loc 5 37 1
	nop
	nop
	ld	ra,56(sp)
	.cfi_restore 1
	addi	sp,sp,64
	.cfi_def_cfa_offset 0
	jr	ra
	.cfi_endproc
.LFE76:
	.size	process_statck_map, .-process_statck_map
	.section	.rodata
	.align	3
.LC26:
	.string	"pid_alloctor"
	.align	3
.LC27:
	.string	"wait lock"
	.align	3
.LC28:
	.string	"processes"
	.text
	.align	2
	.globl	procinit
	.type	procinit, @function
procinit:
.LFB77:
	.loc 5 40 1
	.cfi_startproc
	addi	sp,sp,-32
	.cfi_def_cfa_offset 32
	sd	ra,24(sp)
	.cfi_offset 1, -8
	.loc 5 41 21
	lla	a5,processes
	sd	a5,8(sp)
	.loc 5 43 5
	lla	a1,.LC26
	lla	a0,pid_lock
	call	spinlock_init
	.loc 5 44 5
	lla	a1,.LC27
	lla	a0,wait_lock
	call	spinlock_init
	.loc 5 46 5
	j	.L25
.L26:
	.loc 5 49 9 discriminator 2
	ld	a5,8(sp)
	lla	a1,.LC28
	mv	a0,a5
	call	spinlock_init
	.loc 5 50 17 discriminator 2
	ld	a5,8(sp)
	sw	zero,16(a5)
	.loc 5 51 71 discriminator 2
	ld	a4,8(sp)
	lla	a5,processes
	sub	a5,a4,a5
	srai	a4,a5,3
	lla	a5,.LC25
	ld	a5,0(a5)
	mul	a5,a4,a5
	.loc 5 51 62 discriminator 2
	sext.w	a5,a5
	.loc 5 51 84 discriminator 2
	addiw	a5,a5,1
	sext.w	a5,a5
	.loc 5 51 90 discriminator 2
	slliw	a5,a5,13
	sext.w	a5,a5
	mv	a4,a5
	.loc 5 51 58 discriminator 2
	li	a5,67108864
	addi	a5,a5,-1
	slli	a5,a5,12
	sub	a5,a5,a4
	mv	a4,a5
	.loc 5 51 18 discriminator 2
	ld	a5,8(sp)
	sd	a4,56(a5)
	.loc 5 46 30 discriminator 2
	ld	a5,8(sp)
	addi	a5,a5,216
	sd	a5,8(sp)
.L25:
	.loc 5 46 11 discriminator 1
	ld	a4,8(sp)
	lla	a5,processes+13824
	bltu	a4,a5,.L26
	.loc 5 54 1
	nop
	nop
	ld	ra,24(sp)
	.cfi_restore 1
	addi	sp,sp,32
	.cfi_def_cfa_offset 0
	jr	ra
	.cfi_endproc
.LFE77:
	.size	procinit, .-procinit
	.align	2
	.globl	cpuid
	.type	cpuid, @function
cpuid:
.LFB78:
	.loc 5 57 1
	.cfi_startproc
	addi	sp,sp,-32
	.cfi_def_cfa_offset 32
	sd	ra,24(sp)
	.cfi_offset 1, -8
	.loc 5 58 12
	call	read_tp
	mv	a5,a0
	.loc 5 58 9
	sw	a5,12(sp)
	.loc 5 59 12
	lw	a5,12(sp)
	.loc 5 60 1
	mv	a0,a5
	ld	ra,24(sp)
	.cfi_restore 1
	addi	sp,sp,32
	.cfi_def_cfa_offset 0
	jr	ra
	.cfi_endproc
.LFE78:
	.size	cpuid, .-cpuid
	.align	2
	.globl	mycpu
	.type	mycpu, @function
mycpu:
.LFB79:
	.loc 5 62 24
	.cfi_startproc
	addi	sp,sp,-32
	.cfi_def_cfa_offset 32
	sd	ra,24(sp)
	.cfi_offset 1, -8
	.loc 5 63 12
	call	cpuid
	mv	a5,a0
	sw	a5,12(sp)
	.loc 5 64 17
	lw	a5,12(sp)
	slli	a4,a5,7
	lla	a5,cpus
	add	a5,a4,a5
	sd	a5,0(sp)
	.loc 5 65 12
	ld	a5,0(sp)
	.loc 5 66 1
	mv	a0,a5
	ld	ra,24(sp)
	.cfi_restore 1
	addi	sp,sp,32
	.cfi_def_cfa_offset 0
	jr	ra
	.cfi_endproc
.LFE79:
	.size	mycpu, .-mycpu
	.align	2
	.globl	myproc
	.type	myproc, @function
myproc:
.LFB80:
	.loc 5 68 29
	.cfi_startproc
	addi	sp,sp,-32
	.cfi_def_cfa_offset 32
	sd	ra,24(sp)
	.cfi_offset 1, -8
	.loc 5 69 5
	call	push_off
	.loc 5 70 23
	call	mycpu
	sd	a0,8(sp)
	.loc 5 71 20
	ld	a5,8(sp)
	ld	a5,0(a5)
	sd	a5,0(sp)
	.loc 5 72 5
	call	pop_off
	.loc 5 73 12
	ld	a5,0(sp)
	.loc 5 75 1
	mv	a0,a5
	ld	ra,24(sp)
	.cfi_restore 1
	addi	sp,sp,32
	.cfi_def_cfa_offset 0
	jr	ra
	.cfi_endproc
.LFE80:
	.size	myproc, .-myproc
	.section	.srodata,"a"
	.align	3
	.type	__func__.1, @object
	.size	__func__.1, 8
__func__.1:
	.string	"pop_off"
	.section	.rodata
	.align	3
	.type	__func__.0, @object
	.size	__func__.0, 19
__func__.0:
	.string	"process_statck_map"
	.align	3
.LC25:
	.dword	-8881765665119413741
	.text
.Letext0:
	.file 6 "include/types.h"
	.file 7 "include/kernel/locks.h"
	.file 8 "include/stdarg.h"
	.file 9 "include/asm/svxx.h"
	.file 10 "include/kernel/paging.h"
	.file 11 "include/kernel/mm.h"
	.file 12 "include/stdfmt.h"
	.file 13 "include/kernel/kstdio.h"