	.file	"stdlist.c"
	.option nopic
	.attribute arch, "rv64i2p0_m2p0_a2p0_f2p0_d2p0"
	.attribute unaligned_access, 0
	.attribute stack_align, 16
	.text
.Ltext0:
	.cfi_sections	.debug_frame
	.file 0 "/home/lighthouse/xzr/X2W-OS" "lib/stdlist.c"
	.align	2
	.globl	list_init
	.type	list_init, @function
list_init:
.LFB0:
	.file 1 "lib/stdlist.c"
	.loc 1 15 33
	.cfi_startproc
	addi	sp,sp,-16
	.cfi_def_cfa_offset 16
	sd	a0,8(sp)
	.loc 1 16 25
	ld	a5,8(sp)
	sd	zero,0(a5)
	.loc 1 17 27
	ld	a5,8(sp)
	addi	a4,a5,16
	.loc 1 17 25
	ld	a5,8(sp)
	sd	a4,8(a5)
	.loc 1 18 27
	ld	a4,8(sp)
	.loc 1 18 25
	ld	a5,8(sp)
	sd	a4,16(a5)
	.loc 1 19 25
	ld	a5,8(sp)
	sd	zero,24(a5)
	.loc 1 20 1
	nop
	addi	sp,sp,16
	.cfi_def_cfa_offset 0
	jr	ra
	.cfi_endproc
.LFE0:
	.size	list_init, .-list_init
	.align	2
	.globl	list_insert
	.type	list_insert, @function
list_insert:
.LFB1:
	.loc 1 22 64
	.cfi_startproc
	addi	sp,sp,-16
	.cfi_def_cfa_offset 16
	sd	a0,8(sp)
	sd	a1,0(sp)
	.loc 1 24 15
	ld	a5,8(sp)
	ld	a5,0(a5)
	.loc 1 24 28
	ld	a4,0(sp)
	sd	a4,8(a5)
	.loc 1 25 31
	ld	a5,8(sp)
	ld	a4,0(a5)
	.loc 1 25 19
	ld	a5,0(sp)
	sd	a4,0(a5)
	.loc 1 26 19
	ld	a5,0(sp)
	ld	a4,8(sp)
	sd	a4,8(a5)
	.loc 1 27 22
	ld	a5,8(sp)
	ld	a4,0(sp)
	sd	a4,0(a5)
	.loc 1 28 1
	nop
	addi	sp,sp,16
	.cfi_def_cfa_offset 0
	jr	ra
	.cfi_endproc
.LFE1:
	.size	list_insert, .-list_insert
	.align	2
	.globl	list_append
	.type	list_append, @function
list_append:
.LFB2:
	.loc 1 30 58
	.cfi_startproc
	addi	sp,sp,-32
	.cfi_def_cfa_offset 32
	sd	ra,24(sp)
	.cfi_offset 1, -8
	sd	a0,8(sp)
	sd	a1,0(sp)
	.loc 1 32 5
	ld	a5,0(sp)
	addi	a5,a5,16
	ld	a1,8(sp)
	mv	a0,a5
	call	list_insert
	.loc 1 33 1
	nop
	ld	ra,24(sp)
	.cfi_restore 1
	addi	sp,sp,32
	.cfi_def_cfa_offset 0
	jr	ra
	.cfi_endproc
.LFE2:
	.size	list_append, .-list_append
	.align	2
	.globl	list_remove
	.type	list_remove, @function
list_remove:
.LFB3:
	.loc 1 35 40
	.cfi_startproc
	addi	sp,sp,-16
	.cfi_def_cfa_offset 16
	sd	a0,8(sp)
	.loc 1 38 13
	ld	a5,8(sp)
	ld	a5,0(a5)
	.loc 1 38 36
	ld	a4,8(sp)
	ld	a4,8(a4)
	.loc 1 38 26
	sd	a4,8(a5)
	.loc 1 39 13
	ld	a5,8(sp)
	ld	a5,8(a5)
	.loc 1 39 36
	ld	a4,8(sp)
	ld	a4,0(a4)
	.loc 1 39 26
	sd	a4,0(a5)
	.loc 1 40 1
	nop
	addi	sp,sp,16
	.cfi_def_cfa_offset 0
	jr	ra
	.cfi_endproc
.LFE3:
	.size	list_remove, .-list_remove
	.align	2
	.globl	list_push
	.type	list_push, @function
list_push:
.LFB4:
	.loc 1 42 56
	.cfi_startproc
	addi	sp,sp,-32
	.cfi_def_cfa_offset 32
	sd	ra,24(sp)
	.cfi_offset 1, -8
	sd	a0,8(sp)
	sd	a1,0(sp)
	.loc 1 44 31
	ld	a5,0(sp)
	ld	a5,8(a5)
	.loc 1 44 5
	ld	a1,8(sp)
	mv	a0,a5
	call	list_insert
	.loc 1 45 1
	nop
	ld	ra,24(sp)
	.cfi_restore 1
	addi	sp,sp,32
	.cfi_def_cfa_offset 0
	jr	ra
	.cfi_endproc
.LFE4:
	.size	list_push, .-list_push
	.align	2
	.globl	list_pop
	.type	list_pop, @function
list_pop:
.LFB5:
	.loc 1 47 40
	.cfi_startproc
	addi	sp,sp,-48
	.cfi_def_cfa_offset 48
	sd	ra,40(sp)
	.cfi_offset 1, -8
	sd	a0,8(sp)
	.loc 1 48 18
	ld	a5,8(sp)
	ld	a5,8(a5)
	sd	a5,24(sp)
	.loc 1 49 31
	ld	a5,8(sp)
	ld	a5,8(a5)
	.loc 1 49 5
	mv	a0,a5
	call	list_remove
	.loc 1 50 12
	ld	a5,24(sp)
	.loc 1 51 1
	mv	a0,a5
	ld	ra,40(sp)
	.cfi_restore 1
	addi	sp,sp,48
	.cfi_def_cfa_offset 0
	jr	ra
	.cfi_endproc
.LFE5:
	.size	list_pop, .-list_pop
	.align	2
	.globl	list_empty
	.type	list_empty, @function
list_empty:
.LFB6:
	.loc 1 53 34
	.cfi_startproc
	addi	sp,sp,-16
	.cfi_def_cfa_offset 16
	sd	a0,8(sp)
	.loc 1 54 26
	ld	a5,8(sp)
	ld	a4,8(a5)
	.loc 1 54 35
	ld	a5,8(sp)
	addi	a5,a5,16
	.loc 1 54 58
	sub	a5,a4,a5
	seqz	a5,a5
	andi	a5,a5,0xff
	.loc 1 55 1
	mv	a0,a5
	addi	sp,sp,16
	.cfi_def_cfa_offset 0
	jr	ra
	.cfi_endproc
.LFE6:
	.size	list_empty, .-list_empty
	.align	2
	.globl	list_size
	.type	list_size, @function
list_size:
.LFB7:
	.loc 1 57 35
	.cfi_startproc
	addi	sp,sp,-32
	.cfi_def_cfa_offset 32
	sd	a0,8(sp)
	.loc 1 58 12
	sd	zero,24(sp)
	.loc 1 59 18
	ld	a5,8(sp)
	ld	a5,8(a5)
	sd	a5,16(sp)
	.loc 1 60 11
	j	.L11
.L12:
	.loc 1 61 21
	ld	a5,16(sp)
	ld	a5,8(a5)
	sd	a5,16(sp)
	.loc 1 62 13
	ld	a5,24(sp)
	addi	a5,a5,1
	sd	a5,24(sp)
.L11:
	.loc 1 60 23
	ld	a5,16(sp)
	ld	a4,8(a5)
	.loc 1 60 33
	ld	a5,8(sp)
	addi	a5,a5,16
	.loc 1 60 30
	bne	a4,a5,.L12
	.loc 1 64 17
	ld	a5,24(sp)
	addi	a5,a5,-1
	.loc 1 65 1
	mv	a0,a5
	addi	sp,sp,32
	.cfi_def_cfa_offset 0
	jr	ra
	.cfi_endproc
.LFE7:
	.size	list_size, .-list_size
	.align	2
	.globl	list_search
	.type	list_search, @function
list_search:
.LFB8:
	.loc 1 67 58
	.cfi_startproc
	addi	sp,sp,-32
	.cfi_def_cfa_offset 32
	sd	a0,8(sp)
	sd	a1,0(sp)
	.loc 1 68 18
	ld	a5,0(sp)
	ld	a5,8(a5)
	sd	a5,24(sp)
	.loc 1 69 11
	j	.L15
.L19:
	.loc 1 70 12
	ld	a4,24(sp)
	ld	a5,8(sp)
	bne	a4,a5,.L16
	.loc 1 71 20
	li	a5,1
	j	.L17
.L16:
	.loc 1 72 21
	ld	a5,24(sp)
	ld	a5,8(a5)
	sd	a5,24(sp)
.L15:
	.loc 1 69 27
	ld	a5,0(sp)
	addi	a5,a5,16
	.loc 1 69 43
	ld	a4,24(sp)
	beq	a4,a5,.L18
	.loc 1 69 43 is_stmt 0 discriminator 1
	ld	a5,24(sp)
	bne	a5,zero,.L19
.L18:
	.loc 1 74 12 is_stmt 1
	li	a5,0
.L17:
	.loc 1 75 1
	mv	a0,a5
	addi	sp,sp,32
	.cfi_def_cfa_offset 0
	jr	ra
	.cfi_endproc
.LFE8:
	.size	list_search, .-list_search
	.align	2
	.globl	list_walking
	.type	list_walking, @function
list_walking:
.LFB9:
	.loc 1 77 79
	.cfi_startproc
	addi	sp,sp,-64
	.cfi_def_cfa_offset 64
	sd	ra,56(sp)
	.cfi_offset 1, -8
	sd	a0,24(sp)
	sd	a1,16(sp)
	mv	a5,a2
	sw	a5,12(sp)
	.loc 1 78 18
	ld	a5,24(sp)
	ld	a5,8(a5)
	sd	a5,40(sp)
	.loc 1 79 9
	ld	a0,24(sp)
	call	list_empty
	mv	a5,a0
	.loc 1 79 8
	beq	a5,zero,.L23
	.loc 1 80 16
	li	a5,0
	j	.L22
.L25:
	.loc 1 82 13
	lw	a4,12(sp)
	ld	a5,16(sp)
	mv	a1,a4
	ld	a0,40(sp)
	jalr	a5
.LVL0:
	mv	a5,a0
	.loc 1 82 12
	beq	a5,zero,.L24
	.loc 1 83 20
	ld	a5,40(sp)
	j	.L22
.L24:
	.loc 1 84 21
	ld	a5,40(sp)
	ld	a5,8(a5)
	sd	a5,40(sp)
.L23:
	.loc 1 81 27
	ld	a5,24(sp)
	addi	a5,a5,16
	.loc 1 81 24
	ld	a4,40(sp)
	bne	a4,a5,.L25
	.loc 1 86 12
	li	a5,0
.L22:
	.loc 1 87 1
	mv	a0,a5
	ld	ra,56(sp)
	.cfi_restore 1
	addi	sp,sp,64
	.cfi_def_cfa_offset 0
	jr	ra
	.cfi_endproc
.LFE9:
	.size	list_walking, .-list_walking
.Letext0:
	.file 2 "include/types.h"
	.file 3 "include/stdlist.h"