	.file	"locks.c"
	.option nopic
	.attribute arch, "rv64i2p0_m2p0_a2p0_f2p0_d2p0"
	.attribute unaligned_access, 0
	.attribute stack_align, 16
	.text
.Ltext0:
	.cfi_sections	.debug_frame
	.file 0 "/home/lighthouse/xzr/X2W-OS" "lib/kernel/locks.c"
	.align	2
	.type	supervisor_interrupt_enable, @function
supervisor_interrupt_enable:
.LFB0:
	.file 1 "include/kernel/ktrap.h"
	.loc 1 37 53
	.cfi_startproc
	addi	sp,sp,-16
	.cfi_def_cfa_offset 16
.LBB2:
	.loc 1 38 22
	li	a5,2
	sd	a5,8(sp)
	.loc 1 38 60
	ld	a5,8(sp)
 #APP
# 38 "include/kernel/ktrap.h" 1
	csrs sstatus, a5
# 0 "" 2
 #NO_APP
.LBE2:
	.loc 1 39 1
	nop
	addi	sp,sp,16
	.cfi_def_cfa_offset 0
	jr	ra
	.cfi_endproc
.LFE0:
	.size	supervisor_interrupt_enable, .-supervisor_interrupt_enable
	.align	2
	.type	supervisor_interrupt_disable, @function
supervisor_interrupt_disable:
.LFB1:
	.loc 1 44 54
	.cfi_startproc
	addi	sp,sp,-16
	.cfi_def_cfa_offset 16
.LBB3:
	.loc 1 45 22
	li	a5,2
	sd	a5,8(sp)
	.loc 1 45 60
	ld	a5,8(sp)
 #APP
# 45 "include/kernel/ktrap.h" 1
	csrc sstatus, a5
# 0 "" 2
 #NO_APP
.LBE3:
	.loc 1 46 1
	nop
	addi	sp,sp,16
	.cfi_def_cfa_offset 0
	jr	ra
	.cfi_endproc
.LFE1:
	.size	supervisor_interrupt_disable, .-supervisor_interrupt_disable
	.align	2
	.globl	spinlock_init
	.type	spinlock_init, @function
spinlock_init:
.LFB2:
	.file 2 "lib/kernel/locks.c"
	.loc 2 15 49
	.cfi_startproc
	addi	sp,sp,-16
	.cfi_def_cfa_offset 16
	sd	a0,8(sp)
	sd	a1,0(sp)
	.loc 2 16 18
	ld	a5,8(sp)
	sb	zero,0(a5)
	.loc 2 17 16
	ld	a5,8(sp)
	ld	a4,0(sp)
	sd	a4,8(a5)
	.loc 2 18 1
	nop
	addi	sp,sp,16
	.cfi_def_cfa_offset 0
	jr	ra
	.cfi_endproc
.LFE2:
	.size	spinlock_init, .-spinlock_init
	.align	2
	.globl	spinlock_acquire
	.type	spinlock_acquire, @function
spinlock_acquire:
.LFB3:
	.loc 2 20 40
	.cfi_startproc
	addi	sp,sp,-32
	.cfi_def_cfa_offset 32
	sd	ra,24(sp)
	.cfi_offset 1, -8
	sd	a0,8(sp)
	.loc 2 22 5
	call	supervisor_interrupt_disable
	.loc 2 24 11
	nop
.L5:
	.loc 2 24 37 discriminator 1
	ld	a5,8(sp)
	.loc 2 24 12 discriminator 1
	andi	a4,a5,-4
	andi	a5,a5,3
	li	a3,1
	slliw	a5,a5,3
	sllw	a2,a3,a5
	amoor.w.aq a3,a2,0(a4)
	srlw	a5,a3,a5
	andi	a5,a5,0xff
	.loc 2 24 58 discriminator 1
	bne	a5,zero,.L5
	.loc 2 35 5
	fence	iorw,iorw
	.loc 2 36 1
	nop
	ld	ra,24(sp)
	.cfi_restore 1
	addi	sp,sp,32
	.cfi_def_cfa_offset 0
	jr	ra
	.cfi_endproc
.LFE3:
	.size	spinlock_acquire, .-spinlock_acquire
	.align	2
	.globl	spinlock_release
	.type	spinlock_release, @function
spinlock_release:
.LFB4:
	.loc 2 38 40
	.cfi_startproc
	addi	sp,sp,-32
	.cfi_def_cfa_offset 32
	sd	ra,24(sp)
	.cfi_offset 1, -8
	sd	a0,8(sp)
	.loc 2 49 5
	fence	iorw,iorw
	.loc 2 51 25
	ld	a5,8(sp)
	.loc 2 51 5
	fence	iorw,iorw
	sb	zero,0(a5)
	.loc 2 53 5
	call	supervisor_interrupt_enable
	.loc 2 54 1
	nop
	ld	ra,24(sp)
	.cfi_restore 1
	addi	sp,sp,32
	.cfi_def_cfa_offset 0
	jr	ra
	.cfi_endproc
.LFE4:
	.size	spinlock_release, .-spinlock_release
.Letext0:
	.file 3 "include/kernel/locks.h"
	.file 4 "include/types.h"