	.file	"test.c"
	.option nopic
	.attribute arch, "rv64i2p0_m2p0_a2p0_f2p0_d2p0"
	.attribute unaligned_access, 0
	.attribute stack_align, 16
	.text
.Ltext0:
	.cfi_sections	.debug_frame
	.file 0 "/home/lighthouse/xzr/X2W-OS" "test/test.c"
	.globl	_Test
	.bss
	.align	3
	.type	_Test, @object
	.size	_Test, 168
_Test:
	.zero	168
	.text
	.align	2
	.globl	register_test_func
	.type	register_test_func, @function
register_test_func:
.LFB0:
	.file 1 "test/test.c"
	.loc 1 31 50
	.cfi_startproc
	addi	sp,sp,-16
	.cfi_def_cfa_offset 16
	sd	a0,8(sp)
	.loc 1 33 14
	lla	a5,_Test
	lbu	a5,0(a5)
	.loc 1 33 8
	mv	a4,a5
	li	a5,18
	bgtu	a4,a5,.L3
	.loc 1 34 35
	lla	a5,_Test
	lbu	a5,0(a5)
	.loc 1 34 47
	addiw	a4,a5,1
	andi	a3,a4,0xff
	lla	a4,_Test
	sb	a3,0(a4)
	sext.w	a5,a5
	.loc 1 34 51
	lla	a4,_Test
	slli	a5,a5,3
	add	a5,a4,a5
	ld	a4,8(sp)
	sd	a4,8(a5)
.L3:
	.loc 1 36 1
	nop
	addi	sp,sp,16
	.cfi_def_cfa_offset 0
	jr	ra
	.cfi_endproc
.LFE0:
	.size	register_test_func, .-register_test_func
	.align	2
	.globl	test_all
	.type	test_all, @function
test_all:
.LFB1:
	.loc 1 39 20
	.cfi_startproc
	addi	sp,sp,-32
	.cfi_def_cfa_offset 32
	sd	ra,24(sp)
	.cfi_offset 1, -8
	.loc 1 42 5
	lla	a0,test_uart
	call	register_test_func
	.loc 1 43 5
	lla	a0,test_stdlib
	call	register_test_func
	.loc 1 44 5
	lla	a0,test_stdfmt
	call	register_test_func
	.loc 1 45 5
	lla	a0,test_string
	call	register_test_func
	.loc 1 46 5
	lla	a0,test_kstdio
	call	register_test_func
.LBB2:
	.loc 1 50 14
	sw	zero,12(sp)
	.loc 1 50 5
	j	.L5
.L6:
	.loc 1 51 10 discriminator 3
	lla	a4,_Test
	lw	a5,12(sp)
	slli	a5,a5,3
	add	a5,a4,a5
	ld	a5,8(a5)
	jalr	a5
.LVL0:
	.loc 1 50 45 discriminator 3
	lw	a5,12(sp)
	addiw	a5,a5,1
	sw	a5,12(sp)
.L5:
	.loc 1 50 30 discriminator 1
	lla	a5,_Test
	lbu	a5,0(a5)
	sext.w	a4,a5
	.loc 1 50 23 discriminator 1
	lw	a5,12(sp)
	sext.w	a5,a5
	blt	a5,a4,.L6
.LBE2:
	.loc 1 53 1
	nop
	nop
	ld	ra,24(sp)
	.cfi_restore 1
	addi	sp,sp,32
	.cfi_def_cfa_offset 0
	jr	ra
	.cfi_endproc
.LFE1:
	.size	test_all, .-test_all
.Letext0:
	.file 2 "include/types.h"
	.file 3 "include/test/test.h"
	.file 4 "include/test/test_kstdio.h"
	.file 5 "include/test/test_string.h"
	.file 6 "include/test/test_stdfmt.h"
	.file 7 "include/test/test_stdlib.h"
	.file 8 "include/test/test_uart.h"