	.file	"test_string.c"
	.option nopic
	.attribute arch, "rv64i2p0_m2p0_a2p0_f2p0_d2p0"
	.attribute unaligned_access, 0
	.attribute stack_align, 16
	.text
.Ltext0:
	.cfi_sections	.debug_frame
	.file 0 "/home/lighthouse/xzr/X2W-OS" "test/test_string.c"
	.section	.rodata
	.align	3
.LC0:
	.string	"=> "
	.align	3
.LC1:
	.string	": \n"
	.align	3
.LC4:
	.string	"ffffffffffffffffffffffff"
	.string	""
	.align	3
.LC5:
	.string	"tttttttttttttttttttttttt"
	.string	""
	.align	3
.LC6:
	.string	"\ttest memset within bound:%s:return val=%d;\n"
	.align	3
.LC7:
	.string	"\ttest memcpy within bound%s;no return val\n"
	.align	3
.LC8:
	.string	"\ttest memcmp within bound%d\n"
	.align	3
.LC9:
	.string	"\ttest strcpy wthin bound %s;\n"
	.align	3
.LC10:
	.string	"abbbbbbbbbd"
	.align	3
.LC11:
	.string	"abbbbbbbbbc"
	.align	3
.LC12:
	.string	"\ttest memcmp,return num:%d \n"
	.align	3
.LC13:
	.string	"\ttest strcat:%s\n"
	.align	3
.LC14:
	.string	"abbc"
	.align	3
.LC15:
	.string	"\ttest strchr:%s\n"
	.align	3
.LC16:
	.string	"abbc"
	.string	""
	.align	3
.LC17:
	.string	"\ttest strrchr:%s\n"
	.align	3
.LC18:
	.string	"abbbbc"
	.align	3
.LC19:
	.string	"\ttest strchrs:%d\n"
	.align	3
.LC20:
	.string	"#############################3333333########"
	.string	""
	.align	3
.LC21:
	.string	"@@@@@@@@@@@@@@@@@@@@@@@@@@@@@@@"
	.string	""
	.align	3
.LC22:
	.string	""
	.string	""
	.align	3
.LC23:
	.string	"\ttest strmset within bound:%s:return val=%d;\n"
	.align	3
.LC24:
	.string	"\ttest strmset out of bound:%s:return val=%d;\n"
	.align	3
.LC25:
	.string	"\ttest strslice within bound:%s:return val=%d;\n"
	.align	3
.LC26:
	.string	"\ttest encrypt_decrypt in coding thr string : after coding:%s\n"
	.align	3
.LC27:
	.string	"\ttest encrypt_decrypt in break-coding thr string : after break-coding:%s\n"
	.align	3
.LC28:
	.string	"abcmmm"
	.align	3
.LC29:
	.string	"def\n"
	.align	3
.LC30:
	.string	"\ttest memmove ,return value: %d\n"
	.align	3
.LC2:
	.string	"123456789qwertyuiop@#$$&*())"
	.string	""
	.align	3
.LC3:
	.string	"eeeeeeeeeeeeeeeeeeeeeeeeeeeeeeeeeeeeeeeeee"
	.string	""
	.text
	.align	2
	.globl	test_string
	.type	test_string, @function
test_string:
.LFB8:
	.file 1 "test/test_string.c"
	.loc 1 18 22
	.cfi_startproc
	addi	sp,sp,-2032
	.cfi_def_cfa_offset 2032
	sd	ra,2024(sp)
	sd	s0,2016(sp)
	sd	s1,2008(sp)
	addi	sp,sp,-128
	.cfi_def_cfa_offset 2160
	.cfi_offset 1, -8
	.cfi_offset 8, -16
	.cfi_offset 9, -24
	.loc 1 19 5
	lla	a0,.LC0
	call	uart_puts
	.loc 1 19 23
	lla	a0,__func__.0
	call	uart_puts
	.loc 1 19 44
	lla	a0,.LC1
	call	uart_puts
	.loc 1 20 10
	lla	a4,.LC2
	addi	a5,sp,1032
	mv	a3,a4
	li	a4,30
	mv	a2,a4
	mv	a1,a3
	mv	a0,a5
	call	memcpy
	addi	a5,sp,1062
	li	a4,994
	mv	a2,a4
	li	a1,0
	mv	a0,a5
	call	memset
	.loc 1 21 10
	li	a5,-4096
	li	s1,4096
	addi	a4,s1,-1968
	add	a4,a4,a5
	add	s0,a4,sp
	lla	a4,.LC3
	addi	a5,s0,1976
	mv	a3,a4
	li	a4,44
	mv	a2,a4
	mv	a1,a3
	mv	a0,a5
	call	memcpy
	addi	a5,s0,2020
	li	a4,980
	mv	a2,a4
	li	a1,0
	mv	a0,a5
	call	memset
	.loc 1 22 11
	lla	a5,.LC4
	mv	s0,s1
	addi	a4,s0,-1976
	add	a4,a4,sp
	sd	a5,0(a4)
	.loc 1 23 11
	lla	a5,.LC5
	addi	a4,s0,-1984
	add	a4,a4,sp
	sd	a5,0(a4)
	.loc 1 26 8
	addi	a5,sp,1032
	li	a2,19
	li	a1,64
	mv	a0,a5
	call	memset
	addi	a5,s0,-1992
	add	a5,a5,sp
	sd	a0,0(a5)
	.loc 1 27 5
	addi	a5,sp,1032
	addi	a4,s0,-1992
	add	a4,a4,sp
	ld	a2,0(a4)
	mv	a1,a5
	lla	a0,.LC6
	call	kprintf
	.loc 1 28 16
	addi	a5,sp,1032
	mv	a0,a5
	call	strlen
	mv	a5,a0
	.loc 1 28 5
	srli	a3,a5,1
	addi	a4,sp,1032
	li	a5,-4096
	addi	a5,a5,1976
	addi	a2,s0,-1968
	add	a2,a2,a5
	add	a5,a2,sp
	mv	a2,a3
	mv	a1,a4
	mv	a0,a5
	call	memcpy
	.loc 1 29 5
	li	a5,-4096
	addi	a5,a5,1976
	addi	a4,s0,-1968
	add	a4,a4,a5
	add	a5,a4,sp
	mv	a1,a5
	lla	a0,.LC7
	call	kprintf
	.loc 1 30 46
	li	a5,-4096
	addi	a5,a5,1976
	addi	a4,s0,-1968
	add	a4,a4,a5
	add	a4,a4,sp
	addi	a5,sp,1032
	li	a2,20
	mv	a1,a4
	mv	a0,a5
	call	memcmp
	mv	a5,a0
	.loc 1 30 5
	sext.w	a5,a5
	mv	a1,a5
	lla	a0,.LC8
	call	kprintf
	.loc 1 31 5
	li	a5,-4096
	addi	a5,a5,1976
	addi	a4,s0,-1968
	add	a4,a4,a5
	add	a4,a4,sp
	addi	a5,sp,1032
	mv	a1,a4
	mv	a0,a5
	call	strcpy
	mv	a5,a0
	mv	a1,a5
	lla	a0,.LC9
	call	kprintf
	.loc 1 32 20
	li	a2,6
	lla	a1,.LC10
	lla	a0,.LC11
	call	memcmp
	mv	a5,a0
	addi	a4,s0,-1993
	add	a4,a4,sp
	sb	a5,0(a4)
	.loc 1 33 5
	addi	a5,s0,-1993
	add	a5,a5,sp
	lbu	a5,0(a5)
	sext.w	a5,a5
	mv	a1,a5
	lla	a0,.LC12
	call	kprintf
	.loc 1 34 5
	addi	a5,s0,-1984
	add	a5,a5,sp
	ld	a1,0(a5)
	addi	a5,s0,-1976
	add	a5,a5,sp
	ld	a0,0(a5)
	call	strcat
	.loc 1 35 5
	addi	a5,s0,-1976
	add	a5,a5,sp
	ld	a1,0(a5)
	lla	a0,.LC13
	call	kprintf
	.loc 1 37 5
	li	a1,98
	lla	a0,.LC14
	call	strchr
	mv	a5,a0
	mv	a1,a5
	lla	a0,.LC15
	call	kprintf
	.loc 1 39 5
	li	a1,98
	lla	a0,.LC16
	call	strrchr
	mv	a5,a0
	mv	a1,a5
	lla	a0,.LC17
	call	kprintf
	.loc 1 41 20
	li	a1,98
	lla	a0,.LC18
	call	strchrs
	addi	a5,s0,-2008
	add	a5,a5,sp
	sd	a0,0(a5)
	.loc 1 42 5
	addi	a5,s0,-2008
	add	a5,a5,sp
	ld	a1,0(a5)
	lla	a0,.LC19
	call	kprintf
	.loc 1 45 11
	lla	a5,.LC20
	mv	a4,s0
	addi	a3,a4,-2016
	add	a3,a3,sp
	sd	a5,0(a3)
	.loc 1 46 11
	lla	a5,.LC21
	addi	a3,a4,-2024
	add	a3,a3,sp
	sd	a5,0(a3)
	.loc 1 47 11
	lla	a5,.LC22
	mv	s0,a4
	addi	a4,s0,-2032
	add	a4,a4,sp
	sd	a5,0(a4)
	.loc 1 48 8
	li	a2,10
	li	a1,36
	addi	a5,s0,-2016
	add	a5,a5,sp
	ld	a0,0(a5)
	call	strmset
	addi	a5,s0,-1992
	add	a5,a5,sp
	sd	a0,0(a5)
	.loc 1 49 5
	addi	a5,s0,-1992
	add	a5,a5,sp
	ld	a2,0(a5)
	addi	a5,s0,-2016
	add	a5,a5,sp
	ld	a1,0(a5)
	lla	a0,.LC23
	call	kprintf
	.loc 1 50 8
	li	a5,8192
	addi	a2,a5,1808
	li	a1,36
	addi	a5,s0,-2024
	add	a5,a5,sp
	ld	a0,0(a5)
	call	strmset
	addi	a5,s0,-1992
	add	a5,a5,sp
	sd	a0,0(a5)
	.loc 1 51 5
	addi	a5,s0,-1992
	add	a5,a5,sp
	ld	a2,0(a5)
	addi	a5,s0,-2016
	add	a5,a5,sp
	ld	a1,0(a5)
	lla	a0,.LC24
	call	kprintf
	.loc 1 52 8
	li	a2,10
	li	a1,64
	addi	a5,s0,-2016
	add	a5,a5,sp
	ld	a0,0(a5)
	call	strmset
	addi	a5,s0,-1992
	add	a5,a5,sp
	sd	a0,0(a5)
	.loc 1 53 8
	li	a3,20
	li	a2,3
	addi	a5,s0,-2032
	add	a5,a5,sp
	ld	a1,0(a5)
	addi	a5,s0,-2016
	add	a5,a5,sp
	ld	a0,0(a5)
	call	strslice
	addi	a5,s0,-1992
	add	a5,a5,sp
	sd	a0,0(a5)
	.loc 1 54 5
	addi	a5,s0,-1992
	add	a5,a5,sp
	ld	a2,0(a5)
	addi	a5,s0,-2032
	add	a5,a5,sp
	ld	a1,0(a5)
	lla	a0,.LC25
	call	kprintf
	.loc 1 55 8
	li	a5,200704
	addi	a3,a5,-704
	li	a2,3
	addi	a5,s0,-2032
	add	a5,a5,sp
	ld	a1,0(a5)
	addi	a5,s0,-2016
	add	a5,a5,sp
	ld	a0,0(a5)
	call	strslice
	addi	a5,s0,-1992
	add	a5,a5,sp
	sd	a0,0(a5)
	.loc 1 56 5
	addi	a5,s0,-1992
	add	a5,a5,sp
	ld	a2,0(a5)
	addi	a5,s0,-2032
	add	a5,a5,sp
	ld	a1,0(a5)
	lla	a0,.LC25
	call	kprintf
	.loc 1 58 24
	addi	a5,s0,-2024
	add	a5,a5,sp
	ld	a0,0(a5)
	call	strlen
	mv	a5,a0
	.loc 1 58 34
	sext.w	a5,a5
	addiw	a5,a5,-3
	sext.w	a5,a5
	.loc 1 58 5
	sext.w	a5,a5
	li	a2,84
	mv	a1,a5
	addi	a5,s0,-2024
	add	a5,a5,sp
	ld	a0,0(a5)
	call	encrypt_decrypt
	.loc 1 59 5
	addi	a5,s0,-2024
	add	a5,a5,sp
	ld	a1,0(a5)
	lla	a0,.LC26
	call	kprintf
	.loc 1 60 24
	addi	a5,s0,-2024
	add	a5,a5,sp
	ld	a0,0(a5)
	call	strlen
	mv	a5,a0
	.loc 1 60 34
	sext.w	a5,a5
	addiw	a5,a5,-3
	sext.w	a5,a5
	.loc 1 60 5
	sext.w	a5,a5
	li	a2,84
	mv	a1,a5
	addi	a5,s0,-2024
	add	a5,a5,sp
	ld	a0,0(a5)
	call	encrypt_decrypt
	.loc 1 61 5
	addi	a5,s0,-2024
	add	a5,a5,sp
	ld	a1,0(a5)
	lla	a0,.LC27
	call	kprintf
	.loc 1 62 11
	lla	a5,.LC28
	addi	a4,s0,-2040
	add	a4,a4,sp
	sd	a5,0(a4)
	.loc 1 63 5
	li	a2,3
	lla	a1,.LC29
	addi	a5,s0,-2040
	add	a5,a5,sp
	ld	a0,0(a5)
	call	memmove
	mv	a5,a0
	mv	a1,a5
	lla	a0,.LC30
	call	kprintf
	.loc 1 70 12
	li	a5,-1
	.loc 1 71 1
	mv	a0,a5
	addi	sp,sp,128
	.cfi_def_cfa_offset 2032
	ld	ra,2024(sp)
	.cfi_restore 1
	ld	s0,2016(sp)
	.cfi_restore 8
	ld	s1,2008(sp)
	.cfi_restore 9
	addi	sp,sp,2032
	.cfi_def_cfa_offset 0
	jr	ra
	.cfi_endproc
.LFE8:
	.size	test_string, .-test_string
	.section	.rodata
	.align	3
	.type	__func__.0, @object
	.size	__func__.0, 12
__func__.0:
	.string	"test_string"
	.text
.Letext0:
	.file 2 "include/types.h"
	.file 3 "include/string.h"
	.file 4 "include/kernel/kstdio.h"