	.file	"test_stdfmt.c"
	.option nopic
	.attribute arch, "rv64i2p0_m2p0_a2p0_f2p0_d2p0"
	.attribute unaligned_access, 0
	.attribute stack_align, 16
	.text
.Ltext0:
	.cfi_sections	.debug_frame
	.file 0 "/home/lighthouse/xzr/oskernel2023-x2w" "test/test_stdfmt.c"
	.section	.rodata
	.align	3
.LC0:
	.string	"=> "
	.align	3
.LC1:
	.string	": \n"
	.text
	.align	2
	.globl	test_stdfmt
	.type	test_stdfmt, @function
test_stdfmt:
.LFB0:
	.file 1 "test/test_stdfmt.c"
	.loc 1 32 22
	.cfi_startproc
	addi	sp,sp,-16
	.cfi_def_cfa_offset 16
	sd	ra,8(sp)
	.cfi_offset 1, -8
	.loc 1 33 5
	lla	a0,.LC0
	call	uart_puts
	.loc 1 33 23
	lla	a0,__func__.0
	call	uart_puts
	.loc 1 33 44
	lla	a0,.LC1
	call	uart_puts
	.loc 1 35 5
	call	_test_types
	.loc 1 36 5
	call	_test_flags
	.loc 1 37 5
	call	_test_width
	.loc 1 38 5
	call	_test_precision
	.loc 1 39 5
	call	_test_length
	.loc 1 41 12
	li	a5,0
	.loc 1 42 1
	mv	a0,a5
	ld	ra,8(sp)
	.cfi_restore 1
	addi	sp,sp,16
	.cfi_def_cfa_offset 0
	jr	ra
	.cfi_endproc
.LFE0:
	.size	test_stdfmt, .-test_stdfmt
	.section	.rodata
	.align	3
.LC2:
	.string	"Output a single percent sign: %%\n"
	.align	3
.LC3:
	.string	"Output a single char: %c\n"
	.align	3
.LC4:
	.string	"'Hello World'"
	.align	3
.LC5:
	.string	"Output a string: %s\n"
	.align	3
.LC6:
	.string	"Output a pointer: %p\n"
	.align	3
.LC7:
	.string	"Output a binary: %b\n"
	.align	3
.LC8:
	.string	"Output a octal: %o\n"
	.align	3
.LC9:
	.string	"Output a hex: %x\n"
	.align	3
.LC10:
	.string	"Output a capitcal-hex: %X\n"
	.align	3
.LC11:
	.string	"Output a decimal: %i\n"
	.align	3
.LC12:
	.string	"Output a decimal: %d\n"
	.align	3
.LC13:
	.string	"Output a unsigned decimal: %u\n"
	.align	3
.LC14:
	.string	"Output a string: %s, char been output:%n"
	.align	3
.LC15:
	.string	"%d\n"
	.text
	.align	2
	.globl	_test_types
	.type	_test_types, @function
_test_types:
.LFB1:
	.loc 1 44 23
	.cfi_startproc
	addi	sp,sp,-240
	.cfi_def_cfa_offset 240
	sd	ra,232(sp)
	.cfi_offset 1, -8
.LBB2:
	.loc 1 46 14
	sd	zero,112(sp)
	sd	zero,120(sp)
	sd	zero,128(sp)
	sd	zero,136(sp)
	sd	zero,144(sp)
	sd	zero,152(sp)
	sd	zero,160(sp)
	sd	zero,168(sp)
	sd	zero,176(sp)
	sd	zero,184(sp)
	sd	zero,192(sp)
	sd	zero,200(sp)
	sw	zero,208(sp)
	.loc 1 47 9
	addi	a5,sp,112
	lla	a1,.LC2
	mv	a0,a5
	call	sprintf
	.loc 1 48 9
	addi	a5,sp,112
	mv	a0,a5
	call	uart_puts
.LBE2:
.LBB3:
	.loc 1 51 14
	sd	zero,112(sp)
	sd	zero,120(sp)
	sd	zero,128(sp)
	sd	zero,136(sp)
	sd	zero,144(sp)
	sd	zero,152(sp)
	sd	zero,160(sp)
	sd	zero,168(sp)
	sd	zero,176(sp)
	sd	zero,184(sp)
	sd	zero,192(sp)
	sd	zero,200(sp)
	sw	zero,208(sp)
	.loc 1 52 9
	addi	a5,sp,112
	li	a2,74
	lla	a1,.LC3
	mv	a0,a5
	call	sprintf
	.loc 1 53 9
	addi	a5,sp,112
	mv	a0,a5
	call	uart_puts
.LBE3:
.LBB4:
	.loc 1 56 14
	sd	zero,112(sp)
	sd	zero,120(sp)
	sd	zero,128(sp)
	sd	zero,136(sp)
	sd	zero,144(sp)
	sd	zero,152(sp)
	sd	zero,160(sp)
	sd	zero,168(sp)
	sd	zero,176(sp)
	sd	zero,184(sp)
	sd	zero,192(sp)
	sd	zero,200(sp)
	sw	zero,208(sp)
	.loc 1 57 9
	addi	a5,sp,112
	lla	a2,.LC4
	lla	a1,.LC5
	mv	a0,a5
	call	sprintf
	.loc 1 58 9
	addi	a5,sp,112
	mv	a0,a5
	call	uart_puts
.LBE4:
.LBB5:
	.loc 1 61 14
	sd	zero,112(sp)
	sd	zero,120(sp)
	sd	zero,128(sp)
	sd	zero,136(sp)
	sd	zero,144(sp)
	sd	zero,152(sp)
	sd	zero,160(sp)
	sd	zero,168(sp)
	sd	zero,176(sp)
	sd	zero,184(sp)
	sd	zero,192(sp)
	sd	zero,200(sp)
	sw	zero,208(sp)
	.loc 1 62 9
	addi	a4,sp,112
	addi	a5,sp,112
	mv	a2,a4
	lla	a1,.LC6
	mv	a0,a5
	call	sprintf
	.loc 1 63 9
	addi	a5,sp,112
	mv	a0,a5
	call	uart_puts
.LBE5:
.LBB6:
	.loc 1 66 14
	sd	zero,112(sp)
	sd	zero,120(sp)
	sd	zero,128(sp)
	sd	zero,136(sp)
	sd	zero,144(sp)
	sd	zero,152(sp)
	sd	zero,160(sp)
	sd	zero,168(sp)
	sd	zero,176(sp)
	sd	zero,184(sp)
	sd	zero,192(sp)
	sd	zero,200(sp)
	sw	zero,208(sp)
	.loc 1 67 9
	addi	a4,sp,112
	li	a5,65536
	addi	a2,a5,-1
	lla	a1,.LC7
	mv	a0,a4
	call	sprintf
	.loc 1 68 9
	addi	a5,sp,112
	mv	a0,a5
	call	uart_puts
.LBE6:
.LBB7:
	.loc 1 71 14
	sd	zero,112(sp)
	sd	zero,120(sp)
	sd	zero,128(sp)
	sd	zero,136(sp)
	sd	zero,144(sp)
	sd	zero,152(sp)
	sd	zero,160(sp)
	sd	zero,168(sp)
	sd	zero,176(sp)
	sd	zero,184(sp)
	sd	zero,192(sp)
	sd	zero,200(sp)
	sw	zero,208(sp)
	.loc 1 72 9
	addi	a4,sp,112
	li	a5,344064
	addi	a2,a5,-1673
	lla	a1,.LC8
	mv	a0,a4
	call	sprintf
	.loc 1 73 9
	addi	a5,sp,112
	mv	a0,a5
	call	uart_puts
.LBE7:
.LBB8:
	.loc 1 76 14
	sd	zero,112(sp)
	sd	zero,120(sp)
	sd	zero,128(sp)
	sd	zero,136(sp)
	sd	zero,144(sp)
	sd	zero,152(sp)
	sd	zero,160(sp)
	sd	zero,168(sp)
	sd	zero,176(sp)
	sd	zero,184(sp)
	sd	zero,192(sp)
	sd	zero,200(sp)
	sw	zero,208(sp)
	.loc 1 77 9
	addi	a4,sp,112
	li	a5,11259904
	addi	a2,a5,-529
	lla	a1,.LC9
	mv	a0,a4
	call	sprintf
	.loc 1 78 9
	addi	a5,sp,112
	mv	a0,a5
	call	uart_puts
.LBE8:
.LBB9:
	.loc 1 81 14
	sd	zero,112(sp)
	sd	zero,120(sp)
	sd	zero,128(sp)
	sd	zero,136(sp)
	sd	zero,144(sp)
	sd	zero,152(sp)
	sd	zero,160(sp)
	sd	zero,168(sp)
	sd	zero,176(sp)
	sd	zero,184(sp)
	sd	zero,192(sp)
	sd	zero,200(sp)
	sw	zero,208(sp)
	.loc 1 82 9
	addi	a4,sp,112
	li	a5,11259904
	addi	a2,a5,-529
	lla	a1,.LC10
	mv	a0,a4
	call	sprintf
	.loc 1 83 9
	addi	a5,sp,112
	mv	a0,a5
	call	uart_puts
.LBE9:
.LBB10:
	.loc 1 86 14
	sd	zero,112(sp)
	sd	zero,120(sp)
	sd	zero,128(sp)
	sd	zero,136(sp)
	sd	zero,144(sp)
	sd	zero,152(sp)
	sd	zero,160(sp)
	sd	zero,168(sp)
	sd	zero,176(sp)
	sd	zero,184(sp)
	sd	zero,192(sp)
	sd	zero,200(sp)
	sw	zero,208(sp)
	.loc 1 87 9
	addi	a4,sp,112
	li	a5,123457536
	addi	a2,a5,-747
	lla	a1,.LC11
	mv	a0,a4
	call	sprintf
	.loc 1 88 9
	addi	a5,sp,112
	mv	a0,a5
	call	uart_puts
.LBE10:
.LBB11:
	.loc 1 91 14
	sd	zero,112(sp)
	sd	zero,120(sp)
	sd	zero,128(sp)
	sd	zero,136(sp)
	sd	zero,144(sp)
	sd	zero,152(sp)
	sd	zero,160(sp)
	sd	zero,168(sp)
	sd	zero,176(sp)
	sd	zero,184(sp)
	sd	zero,192(sp)
	sd	zero,200(sp)
	sw	zero,208(sp)
	.loc 1 92 9
	addi	a4,sp,112
	li	a5,123457536
	addi	a2,a5,-747
	lla	a1,.LC12
	mv	a0,a4
	call	sprintf
	.loc 1 93 9
	addi	a5,sp,112
	mv	a0,a5
	call	uart_puts
.LBE11:
.LBB12:
	.loc 1 96 14
	sd	zero,112(sp)
	sd	zero,120(sp)
	sd	zero,128(sp)
	sd	zero,136(sp)
	sd	zero,144(sp)
	sd	zero,152(sp)
	sd	zero,160(sp)
	sd	zero,168(sp)
	sd	zero,176(sp)
	sd	zero,184(sp)
	sd	zero,192(sp)
	sd	zero,200(sp)
	sw	zero,208(sp)
	.loc 1 97 9
	addi	a5,sp,112
	li	a2,-1
	lla	a1,.LC13
	mv	a0,a5
	call	sprintf
	.loc 1 98 9
	addi	a5,sp,112
	mv	a0,a5
	call	uart_puts
.LBE12:
.LBB13:
	.loc 1 101 16
	sd	zero,216(sp)
	.loc 1 102 14
	sd	zero,8(sp)
	sd	zero,16(sp)
	sd	zero,24(sp)
	sd	zero,32(sp)
	sd	zero,40(sp)
	sd	zero,48(sp)
	sd	zero,56(sp)
	sd	zero,64(sp)
	sd	zero,72(sp)
	sd	zero,80(sp)
	sd	zero,88(sp)
	sd	zero,96(sp)
	sw	zero,104(sp)
	.loc 1 103 14
	sd	zero,112(sp)
	sd	zero,120(sp)
	sd	zero,128(sp)
	sd	zero,136(sp)
	sd	zero,144(sp)
	sd	zero,152(sp)
	sd	zero,160(sp)
	sd	zero,168(sp)
	sd	zero,176(sp)
	sd	zero,184(sp)
	sd	zero,192(sp)
	sd	zero,200(sp)
	sw	zero,208(sp)
	.loc 1 104 9
	addi	a4,sp,216
	addi	a5,sp,8
	mv	a3,a4
	lla	a2,.LC4
	lla	a1,.LC14
	mv	a0,a5
	call	sprintf
	.loc 1 105 9
	addi	a5,sp,8
	mv	a0,a5
	call	uart_puts
	.loc 1 106 9
	ld	a5,216(sp)
	sext.w	a4,a5
	addi	a5,sp,112
	mv	a2,a4
	lla	a1,.LC15
	mv	a0,a5
	call	sprintf
	.loc 1 107 9
	addi	a5,sp,112
	mv	a0,a5
	call	uart_puts
.LBE13:
	.loc 1 109 1
	nop
	ld	ra,232(sp)
	.cfi_restore 1
	addi	sp,sp,240
	.cfi_def_cfa_offset 0
	jr	ra
	.cfi_endproc
.LFE1:
	.size	_test_types, .-_test_types
	.section	.rodata
	.align	3
.LC16:
	.string	"Output a 20-bit  left-aligned decimal: %-20d\n"
	.align	3
.LC17:
	.string	"Output a 20-bit right-aligned decimal: %20d\n"
	.align	3
.LC18:
	.string	"Output a 20-bit right-aligned space-padded decimal: %20d\n"
	.align	3
.LC19:
	.string	"Output a 20-bit right-aligned     0-padded decimal: %020d\n"
	.align	3
.LC20:
	.string	"Output a positive decimal: %d\n"
	.align	3
.LC21:
	.string	"Output a negative decimal: %d\n"
	.align	3
.LC22:
	.string	"Output a signed positive decimal: %+d\n"
	.align	3
.LC23:
	.string	"Output a signed negative decimal: %+d\n"
	.align	3
.LC24:
	.string	"Output a suffixed binary: %#b\n"
	.align	3
.LC25:
	.string	"Output a suffixed octal: %#o\n"
	.align	3
.LC26:
	.string	"Output a suffixed hex: %#x\n"
	.text
	.align	2
	.globl	_test_flags
	.type	_test_flags, @function
_test_flags:
.LFB2:
	.loc 1 111 23
	.cfi_startproc
	addi	sp,sp,-128
	.cfi_def_cfa_offset 128
	sd	ra,120(sp)
	.cfi_offset 1, -8
.LBB14:
	.loc 1 113 14
	sd	zero,8(sp)
	sd	zero,16(sp)
	sd	zero,24(sp)
	sd	zero,32(sp)
	sd	zero,40(sp)
	sd	zero,48(sp)
	sd	zero,56(sp)
	sd	zero,64(sp)
	sd	zero,72(sp)
	sd	zero,80(sp)
	sd	zero,88(sp)
	sd	zero,96(sp)
	sw	zero,104(sp)
	.loc 1 114 9
	addi	a4,sp,8
	li	a5,1234567168
	addi	a2,a5,722
	lla	a1,.LC16
	mv	a0,a4
	call	sprintf
	.loc 1 115 9
	addi	a5,sp,8
	mv	a0,a5
	call	uart_puts
.LBE14:
.LBB15:
	.loc 1 118 14
	sd	zero,8(sp)
	sd	zero,16(sp)
	sd	zero,24(sp)
	sd	zero,32(sp)
	sd	zero,40(sp)
	sd	zero,48(sp)
	sd	zero,56(sp)
	sd	zero,64(sp)
	sd	zero,72(sp)
	sd	zero,80(sp)
	sd	zero,88(sp)
	sd	zero,96(sp)
	sw	zero,104(sp)
	.loc 1 119 9
	addi	a4,sp,8
	li	a5,1234567168
	addi	a2,a5,722
	lla	a1,.LC17
	mv	a0,a4
	call	sprintf
	.loc 1 120 9
	addi	a5,sp,8
	mv	a0,a5
	call	uart_puts
.LBE15:
.LBB16:
	.loc 1 123 14
	sd	zero,8(sp)
	sd	zero,16(sp)
	sd	zero,24(sp)
	sd	zero,32(sp)
	sd	zero,40(sp)
	sd	zero,48(sp)
	sd	zero,56(sp)
	sd	zero,64(sp)
	sd	zero,72(sp)
	sd	zero,80(sp)
	sd	zero,88(sp)
	sd	zero,96(sp)
	sw	zero,104(sp)
	.loc 1 124 9
	addi	a4,sp,8
	li	a5,1234567168
	addi	a2,a5,722
	lla	a1,.LC18
	mv	a0,a4
	call	sprintf
	.loc 1 125 9
	addi	a5,sp,8
	mv	a0,a5
	call	uart_puts
.LBE16:
.LBB17:
	.loc 1 128 14
	sd	zero,8(sp)
	sd	zero,16(sp)
	sd	zero,24(sp)
	sd	zero,32(sp)
	sd	zero,40(sp)
	sd	zero,48(sp)
	sd	zero,56(sp)
	sd	zero,64(sp)
	sd	zero,72(sp)
	sd	zero,80(sp)
	sd	zero,88(sp)
	sd	zero,96(sp)
	sw	zero,104(sp)
	.loc 1 129 9
	addi	a4,sp,8
	li	a5,1234567168
	addi	a2,a5,722
	lla	a1,.LC19
	mv	a0,a4
	call	sprintf
	.loc 1 130 9
	addi	a5,sp,8
	mv	a0,a5
	call	uart_puts
.LBE17:
.LBB18:
	.loc 1 133 14
	sd	zero,8(sp)
	sd	zero,16(sp)
	sd	zero,24(sp)
	sd	zero,32(sp)
	sd	zero,40(sp)
	sd	zero,48(sp)
	sd	zero,56(sp)
	sd	zero,64(sp)
	sd	zero,72(sp)
	sd	zero,80(sp)
	sd	zero,88(sp)
	sd	zero,96(sp)
	sw	zero,104(sp)
	.loc 1 134 9
	addi	a5,sp,8
	li	a2,100
	lla	a1,.LC20
	mv	a0,a5
	call	sprintf
	.loc 1 135 9
	addi	a5,sp,8
	mv	a0,a5
	call	uart_puts
.LBE18:
.LBB19:
	.loc 1 138 14
	sd	zero,8(sp)
	sd	zero,16(sp)
	sd	zero,24(sp)
	sd	zero,32(sp)
	sd	zero,40(sp)
	sd	zero,48(sp)
	sd	zero,56(sp)
	sd	zero,64(sp)
	sd	zero,72(sp)
	sd	zero,80(sp)
	sd	zero,88(sp)
	sd	zero,96(sp)
	sw	zero,104(sp)
	.loc 1 139 9
	addi	a5,sp,8
	li	a2,-100
	lla	a1,.LC21
	mv	a0,a5
	call	sprintf
	.loc 1 140 9
	addi	a5,sp,8
	mv	a0,a5
	call	uart_puts
.LBE19:
.LBB20:
	.loc 1 143 14
	sd	zero,8(sp)
	sd	zero,16(sp)
	sd	zero,24(sp)
	sd	zero,32(sp)
	sd	zero,40(sp)
	sd	zero,48(sp)
	sd	zero,56(sp)
	sd	zero,64(sp)
	sd	zero,72(sp)
	sd	zero,80(sp)
	sd	zero,88(sp)
	sd	zero,96(sp)
	sw	zero,104(sp)
	.loc 1 144 9
	addi	a5,sp,8
	li	a2,100
	lla	a1,.LC22
	mv	a0,a5
	call	sprintf
	.loc 1 145 9
	addi	a5,sp,8
	mv	a0,a5
	call	uart_puts
.LBE20:
.LBB21:
	.loc 1 148 14
	sd	zero,8(sp)
	sd	zero,16(sp)
	sd	zero,24(sp)
	sd	zero,32(sp)
	sd	zero,40(sp)
	sd	zero,48(sp)
	sd	zero,56(sp)
	sd	zero,64(sp)
	sd	zero,72(sp)
	sd	zero,80(sp)
	sd	zero,88(sp)
	sd	zero,96(sp)
	sw	zero,104(sp)
	.loc 1 149 9
	addi	a5,sp,8
	li	a2,-100
	lla	a1,.LC23
	mv	a0,a5
	call	sprintf
	.loc 1 150 9
	addi	a5,sp,8
	mv	a0,a5
	call	uart_puts
.LBE21:
.LBB22:
	.loc 1 153 14
	sd	zero,8(sp)
	sd	zero,16(sp)
	sd	zero,24(sp)
	sd	zero,32(sp)
	sd	zero,40(sp)
	sd	zero,48(sp)
	sd	zero,56(sp)
	sd	zero,64(sp)
	sd	zero,72(sp)
	sd	zero,80(sp)
	sd	zero,88(sp)
	sd	zero,96(sp)
	sw	zero,104(sp)
	.loc 1 154 9
	addi	a5,sp,8
	li	a2,15
	lla	a1,.LC24
	mv	a0,a5
	call	sprintf
	.loc 1 155 9
	addi	a5,sp,8
	mv	a0,a5
	call	uart_puts
.LBE22:
.LBB23:
	.loc 1 158 14
	sd	zero,8(sp)
	sd	zero,16(sp)
	sd	zero,24(sp)
	sd	zero,32(sp)
	sd	zero,40(sp)
	sd	zero,48(sp)
	sd	zero,56(sp)
	sd	zero,64(sp)
	sd	zero,72(sp)
	sd	zero,80(sp)
	sd	zero,88(sp)
	sd	zero,96(sp)
	sw	zero,104(sp)
	.loc 1 159 9
	addi	a4,sp,8
	li	a5,2056192
	addi	a2,a5,-1839
	lla	a1,.LC25
	mv	a0,a4
	call	sprintf
	.loc 1 160 9
	addi	a5,sp,8
	mv	a0,a5
	call	uart_puts
.LBE23:
.LBB24:
	.loc 1 163 14
	sd	zero,8(sp)
	sd	zero,16(sp)
	sd	zero,24(sp)
	sd	zero,32(sp)
	sd	zero,40(sp)
	sd	zero,48(sp)
	sd	zero,56(sp)
	sd	zero,64(sp)
	sd	zero,72(sp)
	sd	zero,80(sp)
	sd	zero,88(sp)
	sd	zero,96(sp)
	sw	zero,104(sp)
	.loc 1 164 9
	addi	a4,sp,8
	li	a5,11259904
	addi	a2,a5,-529
	lla	a1,.LC26
	mv	a0,a4
	call	sprintf
	.loc 1 165 9
	addi	a5,sp,8
	mv	a0,a5
	call	uart_puts
.LBE24:
	.loc 1 167 1
	nop
	ld	ra,120(sp)
	.cfi_restore 1
	addi	sp,sp,128
	.cfi_def_cfa_offset 0
	jr	ra
	.cfi_endproc
.LFE2:
	.size	_test_flags, .-_test_flags
	.section	.rodata
	.align	3
.LC27:
	.string	"                              : 01234567890123456789\n"
	.align	3
.LC28:
	.string	"Output a fixed-width decimal  : %20d\n"
	.align	3
.LC29:
	.string	"Output a dynamic-width decimal: %*d\n"
	.text
	.align	2
	.globl	_test_width
	.type	_test_width, @function
_test_width:
.LFB3:
	.loc 1 170 23
	.cfi_startproc
	addi	sp,sp,-128
	.cfi_def_cfa_offset 128
	sd	ra,120(sp)
	.cfi_offset 1, -8
	.loc 1 171 5
	lla	a0,.LC27
	call	uart_puts
.LBB25:
	.loc 1 173 14
	sd	zero,8(sp)
	sd	zero,16(sp)
	sd	zero,24(sp)
	sd	zero,32(sp)
	sd	zero,40(sp)
	sd	zero,48(sp)
	sd	zero,56(sp)
	sd	zero,64(sp)
	sd	zero,72(sp)
	sd	zero,80(sp)
	sd	zero,88(sp)
	sd	zero,96(sp)
	sw	zero,104(sp)
	.loc 1 174 9
	addi	a4,sp,8
	li	a5,122880
	addi	a2,a5,576
	lla	a1,.LC28
	mv	a0,a4
	call	sprintf
	.loc 1 175 9
	addi	a5,sp,8
	mv	a0,a5
	call	uart_puts
.LBE25:
.LBB26:
	.loc 1 178 14
	sd	zero,8(sp)
	sd	zero,16(sp)
	sd	zero,24(sp)
	sd	zero,32(sp)
	sd	zero,40(sp)
	sd	zero,48(sp)
	sd	zero,56(sp)
	sd	zero,64(sp)
	sd	zero,72(sp)
	sd	zero,80(sp)
	sd	zero,88(sp)
	sd	zero,96(sp)
	sw	zero,104(sp)
	.loc 1 179 9
	addi	a4,sp,8
	li	a5,122880
	addi	a3,a5,576
	li	a2,15
	lla	a1,.LC29
	mv	a0,a4
	call	sprintf
	.loc 1 180 9
	addi	a5,sp,8
	mv	a0,a5
	call	uart_puts
.LBE26:
	.loc 1 182 1
	nop
	ld	ra,120(sp)
	.cfi_restore 1
	addi	sp,sp,128
	.cfi_def_cfa_offset 0
	jr	ra
	.cfi_endproc
.LFE3:
	.size	_test_width, .-_test_width
	.section	.rodata
	.align	3
.LC30:
	.string	"                                  : 01234567890123456789\n"
	.align	3
.LC31:
	.string	"Output a fixed-precision decimal  : %.2d\n"
	.align	3
.LC32:
	.string	"Output a fixed-precision decimal  : %.9d\n"
	.align	3
.LC33:
	.string	"Output a dynamic-precision decimal: %.*d\n"
	.text
	.align	2
	.globl	_test_precision
	.type	_test_precision, @function
_test_precision:
.LFB4:
	.loc 1 185 27
	.cfi_startproc
	addi	sp,sp,-128
	.cfi_def_cfa_offset 128
	sd	ra,120(sp)
	.cfi_offset 1, -8
	.loc 1 186 5
	lla	a0,.LC30
	call	uart_puts
.LBB27:
	.loc 1 188 14
	sd	zero,8(sp)
	sd	zero,16(sp)
	sd	zero,24(sp)
	sd	zero,32(sp)
	sd	zero,40(sp)
	sd	zero,48(sp)
	sd	zero,56(sp)
	sd	zero,64(sp)
	sd	zero,72(sp)
	sd	zero,80(sp)
	sd	zero,88(sp)
	sd	zero,96(sp)
	sw	zero,104(sp)
	.loc 1 189 9
	addi	a4,sp,8
	li	a5,122880
	addi	a2,a5,576
	lla	a1,.LC31
	mv	a0,a4
	call	sprintf
	.loc 1 190 9
	addi	a5,sp,8
	mv	a0,a5
	call	uart_puts
.LBE27:
.LBB28:
	.loc 1 193 14
	sd	zero,8(sp)
	sd	zero,16(sp)
	sd	zero,24(sp)
	sd	zero,32(sp)
	sd	zero,40(sp)
	sd	zero,48(sp)
	sd	zero,56(sp)
	sd	zero,64(sp)
	sd	zero,72(sp)
	sd	zero,80(sp)
	sd	zero,88(sp)
	sd	zero,96(sp)
	sw	zero,104(sp)
	.loc 1 194 9
	addi	a4,sp,8
	li	a5,122880
	addi	a2,a5,576
	lla	a1,.LC32
	mv	a0,a4
	call	sprintf
	.loc 1 195 9
	addi	a5,sp,8
	mv	a0,a5
	call	uart_puts
.LBE28:
.LBB29:
	.loc 1 198 14
	sd	zero,8(sp)
	sd	zero,16(sp)
	sd	zero,24(sp)
	sd	zero,32(sp)
	sd	zero,40(sp)
	sd	zero,48(sp)
	sd	zero,56(sp)
	sd	zero,64(sp)
	sd	zero,72(sp)
	sd	zero,80(sp)
	sd	zero,88(sp)
	sd	zero,96(sp)
	sw	zero,104(sp)
	.loc 1 199 9
	addi	a4,sp,8
	li	a5,122880
	addi	a3,a5,576
	li	a2,15
	lla	a1,.LC33
	mv	a0,a4
	call	sprintf
	.loc 1 200 9
	addi	a5,sp,8
	mv	a0,a5
	call	uart_puts
.LBE29:
	.loc 1 202 1
	nop
	ld	ra,120(sp)
	.cfi_restore 1
	addi	sp,sp,128
	.cfi_def_cfa_offset 0
	jr	ra
	.cfi_endproc
.LFE4:
	.size	_test_precision, .-_test_precision
	.section	.rodata
	.align	3
.LC34:
	.string	"Output a short: %hd\n"
	.align	3
.LC36:
	.string	"Output a long: %ld\n"
	.align	3
.LC38:
	.string	"Output a long long: %ld\n"
	.text
	.align	2
	.globl	_test_length
	.type	_test_length, @function
_test_length:
.LFB5:
	.loc 1 205 24
	.cfi_startproc
	addi	sp,sp,-128
	.cfi_def_cfa_offset 128
	sd	ra,120(sp)
	.cfi_offset 1, -8
.LBB30:
	.loc 1 207 14
	sd	zero,8(sp)
	sd	zero,16(sp)
	sd	zero,24(sp)
	sd	zero,32(sp)
	sd	zero,40(sp)
	sd	zero,48(sp)
	sd	zero,56(sp)
	sd	zero,64(sp)
	sd	zero,72(sp)
	sd	zero,80(sp)
	sd	zero,88(sp)
	sd	zero,96(sp)
	sw	zero,104(sp)
	.loc 1 208 9
	addi	a4,sp,8
	li	a5,12288
	addi	a2,a5,57
	lla	a1,.LC34
	mv	a0,a4
	call	sprintf
	.loc 1 209 9
	addi	a5,sp,8
	mv	a0,a5
	call	uart_puts
.LBE30:
.LBB31:
	.loc 1 212 14
	sd	zero,8(sp)
	sd	zero,16(sp)
	sd	zero,24(sp)
	sd	zero,32(sp)
	sd	zero,40(sp)
	sd	zero,48(sp)
	sd	zero,56(sp)
	sd	zero,64(sp)
	sd	zero,72(sp)
	sd	zero,80(sp)
	sd	zero,88(sp)
	sd	zero,96(sp)
	sw	zero,104(sp)
	.loc 1 213 9
	lla	a5,.LC35
	ld	a4,0(a5)
	addi	a5,sp,8
	mv	a2,a4
	lla	a1,.LC36
	mv	a0,a5
	call	sprintf
	.loc 1 214 9
	addi	a5,sp,8
	mv	a0,a5
	call	uart_puts
.LBE31:
.LBB32:
	.loc 1 217 14
	sd	zero,8(sp)
	sd	zero,16(sp)
	sd	zero,24(sp)
	sd	zero,32(sp)
	sd	zero,40(sp)
	sd	zero,48(sp)
	sd	zero,56(sp)
	sd	zero,64(sp)
	sd	zero,72(sp)
	sd	zero,80(sp)
	sd	zero,88(sp)
	sd	zero,96(sp)
	sw	zero,104(sp)
	.loc 1 218 9
	lla	a5,.LC37
	ld	a4,0(a5)
	addi	a5,sp,8
	mv	a2,a4
	lla	a1,.LC38
	mv	a0,a5
	call	sprintf
	.loc 1 219 9
	addi	a5,sp,8
	mv	a0,a5
	call	uart_puts
.LBE32:
	.loc 1 221 1
	nop
	ld	ra,120(sp)
	.cfi_restore 1
	addi	sp,sp,128
	.cfi_def_cfa_offset 0
	jr	ra
	.cfi_endproc
.LFE5:
	.size	_test_length, .-_test_length
	.section	.rodata
	.align	3
	.type	__func__.0, @object
	.size	__func__.0, 12
__func__.0:
	.string	"test_stdfmt"
	.align	3
.LC35:
	.dword	123456789987654321
	.align	3
.LC37:
	.dword	987654321123456789
	.text
.Letext0:
	.file 2 "include/types.h"
	.file 3 "include/stdfmt.h"