	.file	"trapframe.c"
	.option nopic
	.attribute arch, "rv64i2p0_m2p0_a2p0_f2p0_d2p0"
	.attribute unaligned_access, 0
	.attribute stack_align, 16
	.text
.Ltext0:
	.cfi_sections	.debug_frame
	.file 0 "/home/lighthouse/xzr/X2W-OS" "lib/trap/trapframe.c"
	.section	.rodata
	.align	3
.LC0:
	.string	" gp : %#016lX tp : %#016lX t0 : %#016lX\n"
	.align	3
.LC1:
	.string	" t1 : %#016lX t2 : %#016lX t3 : %#016lX\n"
	.align	3
.LC2:
	.string	" s1 : %#016lX a0 : %#016lX a1 : %#016lX\n"
	.align	3
.LC3:
	.string	" a2 : %#016lX a3 : %#016lX a4 : %#016lX\n"
	.align	3
.LC4:
	.string	" a5 : %#016lX a6 : %#016lX a7 : %#016lX\n"
	.align	3
.LC5:
	.string	" s2 : %#016lX s3 : %#016lX s4 : %#016lX\n"
	.align	3
.LC6:
	.string	" s5 : %#016lX s6 : %#016lX s7 : %#016lX\n"
	.align	3
.LC7:
	.string	" s8 : %#016lX s9 : %#016lX s10: %#016lX\n"
	.align	3
.LC8:
	.string	" s11: %#016lX t3 : %#016lX t4 : %#016lX\n"
	.align	3
.LC9:
	.string	" t5 : %#016lX t6 : %#016lX sp : %#016lX\n"
	.align	3
.LC10:
	.string	" ra : %#016lX\n"
	.text
	.align	2
	.globl	print_gtrapframe
	.type	print_gtrapframe, @function
print_gtrapframe:
.LFB0:
	.file 1 "lib/trap/trapframe.c"
	.loc 1 14 66
	.cfi_startproc
	addi	sp,sp,-48
	.cfi_def_cfa_offset 48
	sd	ra,40(sp)
	.cfi_offset 1, -8
	sd	a0,8(sp)
	sd	a1,0(sp)
	.loc 1 15 14
	ld	a5,0(sp)
	sd	a5,24(sp)
	.loc 1 16 2
	ld	a5,8(sp)
	ld	a4,16(a5)
	ld	a5,8(sp)
	ld	a2,24(a5)
	ld	a5,8(sp)
	ld	a3,32(a5)
	ld	a5,24(sp)
	mv	a1,a4
	lla	a0,.LC0
	jalr	a5
.LVL0:
	.loc 1 17 2
	ld	a5,8(sp)
	ld	a4,40(a5)
	ld	a5,8(sp)
	ld	a2,48(a5)
	ld	a5,8(sp)
	ld	a3,56(a5)
	ld	a5,24(sp)
	mv	a1,a4
	lla	a0,.LC1
	jalr	a5
.LVL1:
	.loc 1 18 2
	ld	a5,8(sp)
	ld	a4,64(a5)
	ld	a5,8(sp)
	ld	a2,72(a5)
	ld	a5,8(sp)
	ld	a3,80(a5)
	ld	a5,24(sp)
	mv	a1,a4
	lla	a0,.LC2
	jalr	a5
.LVL2:
	.loc 1 19 2
	ld	a5,8(sp)
	ld	a4,88(a5)
	ld	a5,8(sp)
	ld	a2,96(a5)
	ld	a5,8(sp)
	ld	a3,104(a5)
	ld	a5,24(sp)
	mv	a1,a4
	lla	a0,.LC3
	jalr	a5
.LVL3:
	.loc 1 20 2
	ld	a5,8(sp)
	ld	a4,112(a5)
	ld	a5,8(sp)
	ld	a2,120(a5)
	ld	a5,8(sp)
	ld	a3,128(a5)
	ld	a5,24(sp)
	mv	a1,a4
	lla	a0,.LC4
	jalr	a5
.LVL4:
	.loc 1 21 2
	ld	a5,8(sp)
	ld	a4,136(a5)
	ld	a5,8(sp)
	ld	a2,144(a5)
	ld	a5,8(sp)
	ld	a3,152(a5)
	ld	a5,24(sp)
	mv	a1,a4
	lla	a0,.LC5
	jalr	a5
.LVL5:
	.loc 1 22 2
	ld	a5,8(sp)
	ld	a4,160(a5)
	ld	a5,8(sp)
	ld	a2,168(a5)
	ld	a5,8(sp)
	ld	a3,176(a5)
	ld	a5,24(sp)
	mv	a1,a4
	lla	a0,.LC6
	jalr	a5
.LVL6:
	.loc 1 23 2
	ld	a5,8(sp)
	ld	a4,184(a5)
	ld	a5,8(sp)
	ld	a2,192(a5)
	ld	a5,8(sp)
	ld	a3,200(a5)
	ld	a5,24(sp)
	mv	a1,a4
	lla	a0,.LC7
	jalr	a5
.LVL7:
	.loc 1 24 2
	ld	a5,8(sp)
	ld	a4,208(a5)
	ld	a5,8(sp)
	ld	a2,216(a5)
	ld	a5,8(sp)
	ld	a3,224(a5)
	ld	a5,24(sp)
	mv	a1,a4
	lla	a0,.LC8
	jalr	a5
.LVL8:
	.loc 1 25 2
	ld	a5,8(sp)
	ld	a4,232(a5)
	ld	a5,8(sp)
	ld	a2,240(a5)
	ld	a5,8(sp)
	ld	a3,8(a5)
	ld	a5,24(sp)
	mv	a1,a4
	lla	a0,.LC9
	jalr	a5
.LVL9:
	.loc 1 26 2
	ld	a5,8(sp)
	ld	a4,0(a5)
	ld	a5,24(sp)
	mv	a1,a4
	lla	a0,.LC10
	jalr	a5
.LVL10:
	.loc 1 27 1
	nop
	ld	ra,40(sp)
	.cfi_restore 1
	addi	sp,sp,48
	.cfi_def_cfa_offset 0
	jr	ra
	.cfi_endproc
.LFE0:
	.size	print_gtrapframe, .-print_gtrapframe
	.section	.rodata
	.align	3
.LC11:
	.string	"Print SBI Trap Frame at: %#016X\n"
	.align	3
.LC12:
	.string	"mepc: %#016lX                  mstatus : %#016lX\n"
	.text
	.align	2
	.globl	print_strapframe
	.type	print_strapframe, @function
print_strapframe:
.LFB1:
	.loc 1 30 66
	.cfi_startproc
	addi	sp,sp,-48
	.cfi_def_cfa_offset 48
	sd	ra,40(sp)
	.cfi_offset 1, -8
	sd	a0,8(sp)
	sd	a1,0(sp)
	.loc 1 31 14
	ld	a5,0(sp)
	sd	a5,24(sp)
	.loc 1 32 5
	ld	a5,24(sp)
	ld	a1,8(sp)
	lla	a0,.LC11
	jalr	a5
.LVL11:
	.loc 1 33 5
	ld	a5,8(sp)
	ld	a4,0(a5)
	ld	a5,8(sp)
	ld	a3,256(a5)
	ld	a5,24(sp)
	mv	a2,a3
	mv	a1,a4
	lla	a0,.LC12
	jalr	a5
.LVL12:
	.loc 1 34 2
	ld	a5,8(sp)
	addi	a5,a5,8
	ld	a1,24(sp)
	mv	a0,a5
	call	print_gtrapframe
	.loc 1 35 1
	nop
	ld	ra,40(sp)
	.cfi_restore 1
	addi	sp,sp,48
	.cfi_def_cfa_offset 0
	jr	ra
	.cfi_endproc
.LFE1:
	.size	print_strapframe, .-print_strapframe
	.section	.rodata
	.align	3
.LC13:
	.string	"Print Kernel Trap Frame at: %#016X\n"
	.align	3
.LC14:
	.string	"origin_a0: %#016lX\n"
	.align	3
.LC15:
	.string	"sepc: %#016lX                  sstatus : %#016lX\n"
	.align	3
.LC16:
	.string	"scause: %#016lX               sbadaddr : %#016lX\n"
	.text
	.align	2
	.globl	print_ktrapframe
	.type	print_ktrapframe, @function
print_ktrapframe:
.LFB2:
	.loc 1 38 66
	.cfi_startproc
	addi	sp,sp,-48
	.cfi_def_cfa_offset 48
	sd	ra,40(sp)
	.cfi_offset 1, -8
	sd	a0,8(sp)
	sd	a1,0(sp)
	.loc 1 39 14
	ld	a5,0(sp)
	sd	a5,24(sp)
	.loc 1 40 5
	ld	a5,24(sp)
	ld	a1,8(sp)
	lla	a0,.LC13
	jalr	a5
.LVL13:
	.loc 1 41 2
	ld	a5,8(sp)
	ld	a4,280(a5)
	ld	a5,24(sp)
	mv	a1,a4
	lla	a0,.LC14
	jalr	a5
.LVL14:
	.loc 1 42 5
	ld	a5,8(sp)
	ld	a4,0(a5)
	ld	a5,8(sp)
	ld	a3,256(a5)
	ld	a5,24(sp)
	mv	a2,a3
	mv	a1,a4
	lla	a0,.LC15
	jalr	a5
.LVL15:
	.loc 1 43 5
	ld	a5,8(sp)
	ld	a4,272(a5)
	ld	a5,8(sp)
	ld	a3,264(a5)
	ld	a5,24(sp)
	mv	a2,a3
	mv	a1,a4
	lla	a0,.LC16
	jalr	a5
.LVL16:
	.loc 1 44 2
	ld	a5,8(sp)
	addi	a5,a5,8
	ld	a1,24(sp)
	mv	a0,a5
	call	print_gtrapframe
	.loc 1 45 1
	nop
	ld	ra,40(sp)
	.cfi_restore 1
	addi	sp,sp,48
	.cfi_def_cfa_offset 0
	jr	ra
	.cfi_endproc
.LFE2:
	.size	print_ktrapframe, .-print_ktrapframe
.Letext0:
	.file 2 "include/types.h"
	.file 3 "include/trap/trapframe.h"